libthrift-0.12.0.so:_Z25destroyer_of_fine_socketsPi
libthrift-0.12.0.so:_ZN6apache6thrift11concurrency12TimerManager13threadFactoryESt10shared_ptrIKNS1_13ThreadFactoryEE
libthrift-0.12.0.so:_ZN6apache6thrift11concurrency12TimerManager3addESt10shared_ptrINS1_8RunnableEERK7timeval
libthrift-0.12.0.so:_ZN6apache6thrift11concurrency12TimerManager3addESt10shared_ptrINS1_8RunnableEERK8timespec
libthrift-0.12.0.so:_ZN6apache6thrift11concurrency12TimerManager3addESt10shared_ptrINS1_8RunnableEEl
libthrift-0.12.0.so:_ZN6apache6thrift11concurrency12TimerManager4stopEv
libthrift-0.12.0.so:_ZN6apache6thrift11concurrency12TimerManager5startEv
libthrift-0.12.0.so:_ZN6apache6thrift11concurrency12TimerManager6removeESt10shared_ptrINS1_8RunnableEE
libthrift-0.12.0.so:_ZN6apache6thrift11concurrency12TimerManager6removeESt8weak_ptrINS2_4TaskEE
libthrift-0.12.0.so:_ZN6apache6thrift11concurrency12TimerManagerC1Ev
libthrift-0.12.0.so:_ZN6apache6thrift11concurrency12TimerManagerC2Ev
libthrift-0.12.0.so:_ZN6apache6thrift11concurrency12TimerManagerD0Ev
libthrift-0.12.0.so:_ZN6apache6thrift11concurrency12TimerManagerD1Ev
libthrift-0.12.0.so:_ZN6apache6thrift11concurrency12TimerManagerD2Ev
libthrift-0.12.0.so:_ZN6apache6thrift11concurrency13PthreadThread10threadMainEPv
libthrift-0.12.0.so:_ZN6apache6thrift11concurrency13ThreadManager16newThreadManagerEv
libthrift-0.12.0.so:_ZN6apache6thrift11concurrency13ThreadManager22newSimpleThreadManagerEmm
libthrift-0.12.0.so:_ZN6apache6thrift11concurrency13ThreadManager4Impl12removeWorkerEm
libthrift-0.12.0.so:_ZN6apache6thrift11concurrency13ThreadManager4Impl13removeExpiredEb
libthrift-0.12.0.so:_ZN6apache6thrift11concurrency13ThreadManager4Impl17removeNextPendingEv
libthrift-0.12.0.so:_ZN6apache6thrift11concurrency13ThreadManager4Impl17setExpireCallbackESt8functionIFvSt10shared_ptrINS1_8RunnableEEEE
libthrift-0.12.0.so:_ZN6apache6thrift11concurrency13ThreadManager4Impl22removeWorkersUnderLockEm
libthrift-0.12.0.so:_ZN6apache6thrift11concurrency13ThreadManager4Impl3addESt10shared_ptrINS1_8RunnableEEll
libthrift-0.12.0.so:_ZN6apache6thrift11concurrency13ThreadManager4Impl4stopEv
libthrift-0.12.0.so:_ZN6apache6thrift11concurrency13ThreadManager4Impl5startEv
libthrift-0.12.0.so:_ZN6apache6thrift11concurrency13ThreadManager4Impl6removeESt10shared_ptrINS1_8RunnableEE
libthrift-0.12.0.so:_ZN6apache6thrift11concurrency13ThreadManager4Impl9addWorkerEm
libthrift-0.12.0.so:_ZN6apache6thrift11concurrency14ReadWriteMutexC1Ev
libthrift-0.12.0.so:_ZN6apache6thrift11concurrency14ReadWriteMutexC2Ev
libthrift-0.12.0.so:_ZN6apache6thrift11concurrency18PosixThreadFactory11setPriorityENS2_8PRIORITYE
libthrift-0.12.0.so:_ZN6apache6thrift11concurrency18PosixThreadFactory12setStackSizeEi
libthrift-0.12.0.so:_ZN6apache6thrift11concurrency18PosixThreadFactoryC1ENS2_6POLICYENS2_8PRIORITYEib
libthrift-0.12.0.so:_ZN6apache6thrift11concurrency18PosixThreadFactoryC1Eb
libthrift-0.12.0.so:_ZN6apache6thrift11concurrency18PosixThreadFactoryC2ENS2_6POLICYENS2_8PRIORITYEib
libthrift-0.12.0.so:_ZN6apache6thrift11concurrency18PosixThreadFactoryC2Eb
libthrift-0.12.0.so:_ZN6apache6thrift11concurrency22NoStarveReadWriteMutexC1Ev
libthrift-0.12.0.so:_ZN6apache6thrift11concurrency22NoStarveReadWriteMutexC2Ev
libthrift-0.12.0.so:_ZN6apache6thrift11concurrency4Util16currentTimeTicksEl
libthrift-0.12.0.so:_ZN6apache6thrift11concurrency5Mutex19DEFAULT_INITIALIZEREPv
libthrift-0.12.0.so:_ZN6apache6thrift11concurrency5Mutex20ADAPTIVE_INITIALIZEREPv
libthrift-0.12.0.so:_ZN6apache6thrift11concurrency5Mutex21RECURSIVE_INITIALIZEREPv
libthrift-0.12.0.so:_ZN6apache6thrift11concurrency5Mutex22ERRORCHECK_INITIALIZEREPv
libthrift-0.12.0.so:_ZN6apache6thrift11concurrency5MutexC1EPFvPvE
libthrift-0.12.0.so:_ZN6apache6thrift11concurrency5MutexC2EPFvPvE
libthrift-0.12.0.so:_ZN6apache6thrift11concurrency7MonitorC1EPNS1_5MutexE
libthrift-0.12.0.so:_ZN6apache6thrift11concurrency7MonitorC1EPS2_
libthrift-0.12.0.so:_ZN6apache6thrift11concurrency7MonitorC1Ev
libthrift-0.12.0.so:_ZN6apache6thrift11concurrency7MonitorC2EPNS1_5MutexE
libthrift-0.12.0.so:_ZN6apache6thrift11concurrency7MonitorC2EPS2_
libthrift-0.12.0.so:_ZN6apache6thrift11concurrency7MonitorC2Ev
libthrift-0.12.0.so:_ZN6apache6thrift11concurrency7MonitorD0Ev
libthrift-0.12.0.so:_ZN6apache6thrift11concurrency7MonitorD1Ev
libthrift-0.12.0.so:_ZN6apache6thrift11concurrency7MonitorD2Ev
libthrift-0.12.0.so:_ZN6apache6thrift21TApplicationException4readEPNS0_8protocol9TProtocolE
libthrift-0.12.0.so:_ZN6apache6thrift5async13TAsyncChannel18sendAndRecvMessageERKSt8functionIFvvEEPNS0_9transport13TMemoryBufferESA_
libthrift-0.12.0.so:_ZN6apache6thrift5async21TConcurrentRecvSentry6commitEv
libthrift-0.12.0.so:_ZN6apache6thrift5async21TConcurrentRecvSentryC1EPNS1_25TConcurrentClientSyncInfoEi
libthrift-0.12.0.so:_ZN6apache6thrift5async21TConcurrentRecvSentryC2EPNS1_25TConcurrentClientSyncInfoEi
libthrift-0.12.0.so:_ZN6apache6thrift5async21TConcurrentRecvSentryD1Ev
libthrift-0.12.0.so:_ZN6apache6thrift5async21TConcurrentRecvSentryD2Ev
libthrift-0.12.0.so:_ZN6apache6thrift5async21TConcurrentSendSentry6commitEv
libthrift-0.12.0.so:_ZN6apache6thrift5async21TConcurrentSendSentryC1EPNS1_25TConcurrentClientSyncInfoE
libthrift-0.12.0.so:_ZN6apache6thrift5async21TConcurrentSendSentryC2EPNS1_25TConcurrentClientSyncInfoE
libthrift-0.12.0.so:_ZN6apache6thrift5async21TConcurrentSendSentryD1Ev
libthrift-0.12.0.so:_ZN6apache6thrift5async21TConcurrentSendSentryD2Ev
libthrift-0.12.0.so:_ZN6apache6thrift5async23TAsyncProtocolProcessor6finishESt8functionIFvbEESt10shared_ptrINS0_8protocol9TProtocolEEb
libthrift-0.12.0.so:_ZN6apache6thrift5async23TAsyncProtocolProcessor7processESt8functionIFvbEESt10shared_ptrINS0_9transport11TBufferBaseEES9_
libthrift-0.12.0.so:_ZN6apache6thrift5async25TConcurrentClientSyncInfo10getPendingERNSt7__cxx1112basic_stringIcSt11char_traitsIcESaIcEEERNS0_8protocol12TMessageTypeERi
libthrift-0.12.0.so:_ZN6apache6thrift5async25TConcurrentClientSyncInfo11newMonitor_ERKNS0_11concurrency5GuardE
libthrift-0.12.0.so:_ZN6apache6thrift5async25TConcurrentClientSyncInfo11waitForWorkEi
libthrift-0.12.0.so:_ZN6apache6thrift5async25TConcurrentClientSyncInfo13generateSeqIdEv
libthrift-0.12.0.so:_ZN6apache6thrift5async25TConcurrentClientSyncInfo13updatePendingERKNSt7__cxx1112basic_stringIcSt11char_traitsIcESaIcEEENS0_8protocol12TMessageTypeEi
libthrift-0.12.0.so:_ZN6apache6thrift5async25TConcurrentClientSyncInfo13wakeupAnyone_ERKNS0_11concurrency5GuardE
libthrift-0.12.0.so:_ZN6apache6thrift5async25TConcurrentClientSyncInfo14deleteMonitor_ERKNS0_11concurrency5GuardERSt10shared_ptrINS3_7MonitorEE
libthrift-0.12.0.so:_ZN6apache6thrift5async25TConcurrentClientSyncInfo14throwBadSeqId_Ev
libthrift-0.12.0.so:_ZN6apache6thrift5async25TConcurrentClientSyncInfo20throwDeadConnection_Ev
libthrift-0.12.0.so:_ZN6apache6thrift5async25TConcurrentClientSyncInfo8markBad_ERKNS0_11concurrency5GuardE
libthrift-0.12.0.so:_ZN6apache6thrift5async25TConcurrentClientSyncInfoC1Ev
libthrift-0.12.0.so:_ZN6apache6thrift5async25TConcurrentClientSyncInfoC2Ev
libthrift-0.12.0.so:_ZN6apache6thrift6server13TSimpleServer17onClientConnectedERKSt10shared_ptrINS1_16TConnectedClientEE
libthrift-0.12.0.so:_ZN6apache6thrift6server13TSimpleServer20onClientDisconnectedEPNS1_16TConnectedClientE
libthrift-0.12.0.so:_ZN6apache6thrift6server13TSimpleServer24setConcurrentClientLimitEl
libthrift-0.12.0.so:_ZN6apache6thrift6server13TSimpleServerC1ERKSt10shared_ptrINS0_10TProcessorEERKS3_INS0_9transport16TServerTransportEERKS3_INS8_17TTransportFactoryEERKS3_INS0_8protocol16TProtocolFactoryEE
libthrift-0.12.0.so:_ZN6apache6thrift6server13TSimpleServerC1ERKSt10shared_ptrINS0_10TProcessorEERKS3_INS0_9transport16TServerTransportEERKS3_INS8_17TTransportFactoryEESG_RKS3_INS0_8protocol16TProtocolFactoryEESL_
libthrift-0.12.0.so:_ZN6apache6thrift6server13TSimpleServerC1ERKSt10shared_ptrINS0_17TProcessorFactoryEERKS3_INS0_9transport16TServerTransportEERKS3_INS8_17TTransportFactoryEERKS3_INS0_8protocol16TProtocolFactoryEE
libthrift-0.12.0.so:_ZN6apache6thrift6server13TSimpleServerC1ERKSt10shared_ptrINS0_17TProcessorFactoryEERKS3_INS0_9transport16TServerTransportEERKS3_INS8_17TTransportFactoryEESG_RKS3_INS0_8protocol16TProtocolFactoryEESL_
libthrift-0.12.0.so:_ZN6apache6thrift6server13TSimpleServerC2ERKSt10shared_ptrINS0_10TProcessorEERKS3_INS0_9transport16TServerTransportEERKS3_INS8_17TTransportFactoryEERKS3_INS0_8protocol16TProtocolFactoryEE
libthrift-0.12.0.so:_ZN6apache6thrift6server13TSimpleServerC2ERKSt10shared_ptrINS0_10TProcessorEERKS3_INS0_9transport16TServerTransportEERKS3_INS8_17TTransportFactoryEESG_RKS3_INS0_8protocol16TProtocolFactoryEESL_
libthrift-0.12.0.so:_ZN6apache6thrift6server13TSimpleServerC2ERKSt10shared_ptrINS0_17TProcessorFactoryEERKS3_INS0_9transport16TServerTransportEERKS3_INS8_17TTransportFactoryEERKS3_INS0_8protocol16TProtocolFactoryEE
libthrift-0.12.0.so:_ZN6apache6thrift6server13TSimpleServerC2ERKSt10shared_ptrINS0_17TProcessorFactoryEERKS3_INS0_9transport16TServerTransportEERKS3_INS8_17TTransportFactoryEESG_RKS3_INS0_8protocol16TProtocolFactoryEESL_
libthrift-0.12.0.so:_ZN6apache6thrift6server13TSimpleServerD0Ev
libthrift-0.12.0.so:_ZN6apache6thrift6server13TSimpleServerD1Ev
libthrift-0.12.0.so:_ZN6apache6thrift6server13TSimpleServerD2Ev
libthrift-0.12.0.so:_ZN6apache6thrift6server15TThreadedServer16drainDeadClientsEv
libthrift-0.12.0.so:_ZN6apache6thrift6server15TThreadedServer17onClientConnectedERKSt10shared_ptrINS1_16TConnectedClientEE
libthrift-0.12.0.so:_ZN6apache6thrift6server15TThreadedServer20onClientDisconnectedEPNS1_16TConnectedClientE
libthrift-0.12.0.so:_ZN6apache6thrift6server15TThreadedServer22TConnectedClientRunner3runEv
libthrift-0.12.0.so:_ZN6apache6thrift6server15TThreadedServer22TConnectedClientRunnerC1ERKSt10shared_ptrINS1_16TConnectedClientEE
libthrift-0.12.0.so:_ZN6apache6thrift6server15TThreadedServer22TConnectedClientRunnerC2ERKSt10shared_ptrINS1_16TConnectedClientEE
libthrift-0.12.0.so:_ZN6apache6thrift6server15TThreadedServer22TConnectedClientRunnerD0Ev
libthrift-0.12.0.so:_ZN6apache6thrift6server15TThreadedServer22TConnectedClientRunnerD1Ev
libthrift-0.12.0.so:_ZN6apache6thrift6server15TThreadedServer22TConnectedClientRunnerD2Ev
libthrift-0.12.0.so:_ZN6apache6thrift6server15TThreadedServer5serveEv
libthrift-0.12.0.so:_ZN6apache6thrift6server15TThreadedServerC1ERKSt10shared_ptrINS0_10TProcessorEERKS3_INS0_9transport16TServerTransportEERKS3_INS8_17TTransportFactoryEERKS3_INS0_8protocol16TProtocolFactoryEERKS3_INS0_11concurrency13ThreadFactoryEE
libthrift-0.12.0.so:_ZN6apache6thrift6server15TThreadedServerC1ERKSt10shared_ptrINS0_10TProcessorEERKS3_INS0_9transport16TServerTransportEERKS3_INS8_17TTransportFactoryEESG_RKS3_INS0_8protocol16TProtocolFactoryEESL_RKS3_INS0_11concurrency13ThreadFactoryEE
libthrift-0.12.0.so:_ZN6apache6thrift6server15TThreadedServerC1ERKSt10shared_ptrINS0_17TProcessorFactoryEERKS3_INS0_9transport16TServerTransportEERKS3_INS8_17TTransportFactoryEERKS3_INS0_8protocol16TProtocolFactoryEERKS3_INS0_11concurrency13ThreadFactoryEE
libthrift-0.12.0.so:_ZN6apache6thrift6server15TThreadedServerC1ERKSt10shared_ptrINS0_17TProcessorFactoryEERKS3_INS0_9transport16TServerTransportEERKS3_INS8_17TTransportFactoryEESG_RKS3_INS0_8protocol16TProtocolFactoryEESL_RKS3_INS0_11concurrency13ThreadFactoryEE
libthrift-0.12.0.so:_ZN6apache6thrift6server15TThreadedServerC2ERKSt10shared_ptrINS0_10TProcessorEERKS3_INS0_9transport16TServerTransportEERKS3_INS8_17TTransportFactoryEERKS3_INS0_8protocol16TProtocolFactoryEERKS3_INS0_11concurrency13ThreadFactoryEE
libthrift-0.12.0.so:_ZN6apache6thrift6server15TThreadedServerC2ERKSt10shared_ptrINS0_10TProcessorEERKS3_INS0_9transport16TServerTransportEERKS3_INS8_17TTransportFactoryEESG_RKS3_INS0_8protocol16TProtocolFactoryEESL_RKS3_INS0_11concurrency13ThreadFactoryEE
libthrift-0.12.0.so:_ZN6apache6thrift6server15TThreadedServerC2ERKSt10shared_ptrINS0_17TProcessorFactoryEERKS3_INS0_9transport16TServerTransportEERKS3_INS8_17TTransportFactoryEERKS3_INS0_8protocol16TProtocolFactoryEERKS3_INS0_11concurrency13ThreadFactoryEE
libthrift-0.12.0.so:_ZN6apache6thrift6server15TThreadedServerC2ERKSt10shared_ptrINS0_17TProcessorFactoryEERKS3_INS0_9transport16TServerTransportEERKS3_INS8_17TTransportFactoryEESG_RKS3_INS0_8protocol16TProtocolFactoryEESL_RKS3_INS0_11concurrency13ThreadFactoryEE
libthrift-0.12.0.so:_ZN6apache6thrift6server15TThreadedServerD0Ev
libthrift-0.12.0.so:_ZN6apache6thrift6server15TThreadedServerD1Ev
libthrift-0.12.0.so:_ZN6apache6thrift6server15TThreadedServerD2Ev
libthrift-0.12.0.so:_ZN6apache6thrift6server16TConnectedClient3runEv
libthrift-0.12.0.so:_ZN6apache6thrift6server16TConnectedClient7cleanupEv
libthrift-0.12.0.so:_ZN6apache6thrift6server16TConnectedClientC1ERKSt10shared_ptrINS0_10TProcessorEERKS3_INS0_8protocol9TProtocolEESC_RKS3_INS1_19TServerEventHandlerEERKS3_INS0_9transport10TTransportEE
libthrift-0.12.0.so:_ZN6apache6thrift6server16TConnectedClientC2ERKSt10shared_ptrINS0_10TProcessorEERKS3_INS0_8protocol9TProtocolEESC_RKS3_INS1_19TServerEventHandlerEERKS3_INS0_9transport10TTransportEE
libthrift-0.12.0.so:_ZN6apache6thrift6server16TConnectedClientD0Ev
libthrift-0.12.0.so:_ZN6apache6thrift6server16TConnectedClientD1Ev
libthrift-0.12.0.so:_ZN6apache6thrift6server16TConnectedClientD2Ev
libthrift-0.12.0.so:_ZN6apache6thrift6server16TServerFramework20newlyConnectedClientERKSt10shared_ptrINS1_16TConnectedClientEE
libthrift-0.12.0.so:_ZN6apache6thrift6server16TServerFramework22disposeConnectedClientEPNS1_16TConnectedClientE
libthrift-0.12.0.so:_ZN6apache6thrift6server16TServerFramework24setConcurrentClientLimitEl
libthrift-0.12.0.so:_ZN6apache6thrift6server16TServerFramework4stopEv
libthrift-0.12.0.so:_ZN6apache6thrift6server16TServerFramework5serveEv
libthrift-0.12.0.so:_ZN6apache6thrift6server16TServerFrameworkC1ERKSt10shared_ptrINS0_10TProcessorEERKS3_INS0_9transport16TServerTransportEERKS3_INS8_17TTransportFactoryEERKS3_INS0_8protocol16TProtocolFactoryEE
libthrift-0.12.0.so:_ZN6apache6thrift6server16TServerFrameworkC1ERKSt10shared_ptrINS0_10TProcessorEERKS3_INS0_9transport16TServerTransportEERKS3_INS8_17TTransportFactoryEESG_RKS3_INS0_8protocol16TProtocolFactoryEESL_
libthrift-0.12.0.so:_ZN6apache6thrift6server16TServerFrameworkC1ERKSt10shared_ptrINS0_17TProcessorFactoryEERKS3_INS0_9transport16TServerTransportEERKS3_INS8_17TTransportFactoryEERKS3_INS0_8protocol16TProtocolFactoryEE
libthrift-0.12.0.so:_ZN6apache6thrift6server16TServerFrameworkC1ERKSt10shared_ptrINS0_17TProcessorFactoryEERKS3_INS0_9transport16TServerTransportEERKS3_INS8_17TTransportFactoryEESG_RKS3_INS0_8protocol16TProtocolFactoryEESL_
libthrift-0.12.0.so:_ZN6apache6thrift6server16TServerFrameworkC2ERKSt10shared_ptrINS0_10TProcessorEERKS3_INS0_9transport16TServerTransportEERKS3_INS8_17TTransportFactoryEERKS3_INS0_8protocol16TProtocolFactoryEE
libthrift-0.12.0.so:_ZN6apache6thrift6server16TServerFrameworkC2ERKSt10shared_ptrINS0_10TProcessorEERKS3_INS0_9transport16TServerTransportEERKS3_INS8_17TTransportFactoryEESG_RKS3_INS0_8protocol16TProtocolFactoryEESL_
libthrift-0.12.0.so:_ZN6apache6thrift6server16TServerFrameworkC2ERKSt10shared_ptrINS0_17TProcessorFactoryEERKS3_INS0_9transport16TServerTransportEERKS3_INS8_17TTransportFactoryEERKS3_INS0_8protocol16TProtocolFactoryEE
libthrift-0.12.0.so:_ZN6apache6thrift6server16TServerFrameworkC2ERKSt10shared_ptrINS0_17TProcessorFactoryEERKS3_INS0_9transport16TServerTransportEERKS3_INS8_17TTransportFactoryEESG_RKS3_INS0_8protocol16TProtocolFactoryEESL_
libthrift-0.12.0.so:_ZN6apache6thrift6server16TServerFrameworkD0Ev
libthrift-0.12.0.so:_ZN6apache6thrift6server16TServerFrameworkD1Ev
libthrift-0.12.0.so:_ZN6apache6thrift6server16TServerFrameworkD2Ev
libthrift-0.12.0.so:_ZN6apache6thrift6server16increase_max_fdsEi
libthrift-0.12.0.so:_ZN6apache6thrift6server17TThreadPoolServer10setTimeoutEl
libthrift-0.12.0.so:_ZN6apache6thrift6server17TThreadPoolServer17onClientConnectedERKSt10shared_ptrINS1_16TConnectedClientEE
libthrift-0.12.0.so:_ZN6apache6thrift6server17TThreadPoolServer17setTaskExpirationEl
libthrift-0.12.0.so:_ZN6apache6thrift6server17TThreadPoolServer20onClientDisconnectedEPNS1_16TConnectedClientE
libthrift-0.12.0.so:_ZN6apache6thrift6server17TThreadPoolServer5serveEv
libthrift-0.12.0.so:_ZN6apache6thrift6server17TThreadPoolServerC1ERKSt10shared_ptrINS0_10TProcessorEERKS3_INS0_9transport16TServerTransportEERKS3_INS8_17TTransportFactoryEERKS3_INS0_8protocol16TProtocolFactoryEERKS3_INS0_11concurrency13ThreadManagerEE
libthrift-0.12.0.so:_ZN6apache6thrift6server17TThreadPoolServerC1ERKSt10shared_ptrINS0_10TProcessorEERKS3_INS0_9transport16TServerTransportEERKS3_INS8_17TTransportFactoryEESG_RKS3_INS0_8protocol16TProtocolFactoryEESL_RKS3_INS0_11concurrency13ThreadManagerEE
libthrift-0.12.0.so:_ZN6apache6thrift6server17TThreadPoolServerC1ERKSt10shared_ptrINS0_17TProcessorFactoryEERKS3_INS0_9transport16TServerTransportEERKS3_INS8_17TTransportFactoryEERKS3_INS0_8protocol16TProtocolFactoryEERKS3_INS0_11concurrency13ThreadManagerEE
libthrift-0.12.0.so:_ZN6apache6thrift6server17TThreadPoolServerC1ERKSt10shared_ptrINS0_17TProcessorFactoryEERKS3_INS0_9transport16TServerTransportEERKS3_INS8_17TTransportFactoryEESG_RKS3_INS0_8protocol16TProtocolFactoryEESL_RKS3_INS0_11concurrency13ThreadManagerEE
libthrift-0.12.0.so:_ZN6apache6thrift6server17TThreadPoolServerC2ERKSt10shared_ptrINS0_10TProcessorEERKS3_INS0_9transport16TServerTransportEERKS3_INS8_17TTransportFactoryEERKS3_INS0_8protocol16TProtocolFactoryEERKS3_INS0_11concurrency13ThreadManagerEE
libthrift-0.12.0.so:_ZN6apache6thrift6server17TThreadPoolServerC2ERKSt10shared_ptrINS0_10TProcessorEERKS3_INS0_9transport16TServerTransportEERKS3_INS8_17TTransportFactoryEESG_RKS3_INS0_8protocol16TProtocolFactoryEESL_RKS3_INS0_11concurrency13ThreadManagerEE
libthrift-0.12.0.so:_ZN6apache6thrift6server17TThreadPoolServerC2ERKSt10shared_ptrINS0_17TProcessorFactoryEERKS3_INS0_9transport16TServerTransportEERKS3_INS8_17TTransportFactoryEERKS3_INS0_8protocol16TProtocolFactoryEERKS3_INS0_11concurrency13ThreadManagerEE
libthrift-0.12.0.so:_ZN6apache6thrift6server17TThreadPoolServerC2ERKSt10shared_ptrINS0_17TProcessorFactoryEERKS3_INS0_9transport16TServerTransportEERKS3_INS8_17TTransportFactoryEESG_RKS3_INS0_8protocol16TProtocolFactoryEESL_RKS3_INS0_11concurrency13ThreadManagerEE
libthrift-0.12.0.so:_ZN6apache6thrift6server17TThreadPoolServerD0Ev
libthrift-0.12.0.so:_ZN6apache6thrift6server17TThreadPoolServerD1Ev
libthrift-0.12.0.so:_ZN6apache6thrift6server17TThreadPoolServerD2Ev
libthrift-0.12.0.so:_ZN6apache6thrift7TOutput10strerror_sB5cxx11Ei
libthrift-0.12.0.so:_ZN6apache6thrift7TOutput16errorTimeWrapperEPKc
libthrift-0.12.0.so:_ZN6apache6thrift7TOutput6perrorEPKci
libthrift-0.12.0.so:_ZN6apache6thrift7TOutput6printfEPKcz
libthrift-0.12.0.so:_ZN6apache6thrift8protocol13TJSONProtocol10popContextEv
libthrift-0.12.0.so:_ZN6apache6thrift8protocol13TJSONProtocol10readBinaryERNSt7__cxx1112basic_stringIcSt11char_traitsIcESaIcEEE
libthrift-0.12.0.so:_ZN6apache6thrift8protocol13TJSONProtocol10readDoubleERd
libthrift-0.12.0.so:_ZN6apache6thrift8protocol13TJSONProtocol10readMapEndEv
libthrift-0.12.0.so:_ZN6apache6thrift8protocol13TJSONProtocol10readSetEndEv
libthrift-0.12.0.so:_ZN6apache6thrift8protocol13TJSONProtocol10readStringERNSt7__cxx1112basic_stringIcSt11char_traitsIcESaIcEEE
libthrift-0.12.0.so:_ZN6apache6thrift8protocol13TJSONProtocol11pushContextESt10shared_ptrINS1_12TJSONContextEE
libthrift-0.12.0.so:_ZN6apache6thrift8protocol13TJSONProtocol11readListEndEv
libthrift-0.12.0.so:_ZN6apache6thrift8protocol13TJSONProtocol11writeBinaryERKNSt7__cxx1112basic_stringIcSt11char_traitsIcESaIcEEE
libthrift-0.12.0.so:_ZN6apache6thrift8protocol13TJSONProtocol11writeDoubleEd
libthrift-0.12.0.so:_ZN6apache6thrift8protocol13TJSONProtocol11writeMapEndEv
libthrift-0.12.0.so:_ZN6apache6thrift8protocol13TJSONProtocol11writeSetEndEv
libthrift-0.12.0.so:_ZN6apache6thrift8protocol13TJSONProtocol11writeStringERKNSt7__cxx1112basic_stringIcSt11char_traitsIcESaIcEEE
libthrift-0.12.0.so:_ZN6apache6thrift8protocol13TJSONProtocol12readFieldEndEv
libthrift-0.12.0.so:_ZN6apache6thrift8protocol13TJSONProtocol12readMapBeginERNS1_5TTypeES4_Rj
libthrift-0.12.0.so:_ZN6apache6thrift8protocol13TJSONProtocol12readSetBeginERNS1_5TTypeERj
libthrift-0.12.0.so:_ZN6apache6thrift8protocol13TJSONProtocol12writeListEndEv
libthrift-0.12.0.so:_ZN6apache6thrift8protocol13TJSONProtocol13readListBeginERNS1_5TTypeERj
libthrift-0.12.0.so:_ZN6apache6thrift8protocol13TJSONProtocol13readStructEndEv
libthrift-0.12.0.so:_ZN6apache6thrift8protocol13TJSONProtocol13writeFieldEndEv
libthrift-0.12.0.so:_ZN6apache6thrift8protocol13TJSONProtocol13writeJSONCharEh
libthrift-0.12.0.so:_ZN6apache6thrift8protocol13TJSONProtocol13writeMapBeginENS1_5TTypeES3_j
libthrift-0.12.0.so:_ZN6apache6thrift8protocol13TJSONProtocol13writeSetBeginENS1_5TTypeEj
libthrift-0.12.0.so:_ZN6apache6thrift8protocol13TJSONProtocol14readFieldBeginERNSt7__cxx1112basic_stringIcSt11char_traitsIcESaIcEEERNS1_5TTypeERs
libthrift-0.12.0.so:_ZN6apache6thrift8protocol13TJSONProtocol14readJSONBase64ERNSt7__cxx1112basic_stringIcSt11char_traitsIcESaIcEEE
libthrift-0.12.0.so:_ZN6apache6thrift8protocol13TJSONProtocol14readJSONDoubleERd
libthrift-0.12.0.so:_ZN6apache6thrift8protocol13TJSONProtocol14readJSONStringERNSt7__cxx1112basic_stringIcSt11char_traitsIcESaIcEEEb
libthrift-0.12.0.so:_ZN6apache6thrift8protocol13TJSONProtocol14readMessageEndEv
libthrift-0.12.0.so:_ZN6apache6thrift8protocol13TJSONProtocol14writeFieldStopEv
libthrift-0.12.0.so:_ZN6apache6thrift8protocol13TJSONProtocol14writeListBeginENS1_5TTypeEj
libthrift-0.12.0.so:_ZN6apache6thrift8protocol13TJSONProtocol14writeStructEndEv
libthrift-0.12.0.so:_ZN6apache6thrift8protocol13TJSONProtocol15readStructBeginERNSt7__cxx1112basic_stringIcSt11char_traitsIcESaIcEEE
libthrift-0.12.0.so:_ZN6apache6thrift8protocol13TJSONProtocol15writeFieldBeginEPKcNS1_5TTypeEs
libthrift-0.12.0.so:_ZN6apache6thrift8protocol13TJSONProtocol15writeJSONBase64ERKNSt7__cxx1112basic_stringIcSt11char_traitsIcESaIcEEE
libthrift-0.12.0.so:_ZN6apache6thrift8protocol13TJSONProtocol15writeJSONDoubleEd
libthrift-0.12.0.so:_ZN6apache6thrift8protocol13TJSONProtocol15writeJSONStringERKNSt7__cxx1112basic_stringIcSt11char_traitsIcESaIcEEE
libthrift-0.12.0.so:_ZN6apache6thrift8protocol13TJSONProtocol15writeMessageEndEv
libthrift-0.12.0.so:_ZN6apache6thrift8protocol13TJSONProtocol16readJSONArrayEndEv
libthrift-0.12.0.so:_ZN6apache6thrift8protocol13TJSONProtocol16readMessageBeginERNSt7__cxx1112basic_stringIcSt11char_traitsIcESaIcEEERNS1_12TMessageTypeERi
libthrift-0.12.0.so:_ZN6apache6thrift8protocol13TJSONProtocol16writeStructBeginEPKc
libthrift-0.12.0.so:_ZN6apache6thrift8protocol13TJSONProtocol17readJSONObjectEndEv
libthrift-0.12.0.so:_ZN6apache6thrift8protocol13TJSONProtocol17writeJSONArrayEndEv
libthrift-0.12.0.so:_ZN6apache6thrift8protocol13TJSONProtocol17writeMessageBeginERKNSt7__cxx1112basic_stringIcSt11char_traitsIcESaIcEEENS1_12TMessageTypeEi
libthrift-0.12.0.so:_ZN6apache6thrift8protocol13TJSONProtocol18readJSONArrayStartEv
libthrift-0.12.0.so:_ZN6apache6thrift8protocol13TJSONProtocol18readJSONEscapeCharEPt
libthrift-0.12.0.so:_ZN6apache6thrift8protocol13TJSONProtocol18readJSONSyntaxCharEh
libthrift-0.12.0.so:_ZN6apache6thrift8protocol13TJSONProtocol18writeJSONObjectEndEv
libthrift-0.12.0.so:_ZN6apache6thrift8protocol13TJSONProtocol19readJSONObjectStartEv
libthrift-0.12.0.so:_ZN6apache6thrift8protocol13TJSONProtocol19writeJSONArrayStartEv
libthrift-0.12.0.so:_ZN6apache6thrift8protocol13TJSONProtocol19writeJSONEscapeCharEh
libthrift-0.12.0.so:_ZN6apache6thrift8protocol13TJSONProtocol20readJSONNumericCharsERNSt7__cxx1112basic_stringIcSt11char_traitsIcESaIcEEE
libthrift-0.12.0.so:_ZN6apache6thrift8protocol13TJSONProtocol20writeJSONObjectStartEv
libthrift-0.12.0.so:_ZN6apache6thrift8protocol13TJSONProtocol7readI16ERs
libthrift-0.12.0.so:_ZN6apache6thrift8protocol13TJSONProtocol7readI32ERi
libthrift-0.12.0.so:_ZN6apache6thrift8protocol13TJSONProtocol7readI64ERl
libthrift-0.12.0.so:_ZN6apache6thrift8protocol13TJSONProtocol8readBoolERb
libthrift-0.12.0.so:_ZN6apache6thrift8protocol13TJSONProtocol8readByteERa
libthrift-0.12.0.so:_ZN6apache6thrift8protocol13TJSONProtocol8writeI16Es
libthrift-0.12.0.so:_ZN6apache6thrift8protocol13TJSONProtocol8writeI32Ei
libthrift-0.12.0.so:_ZN6apache6thrift8protocol13TJSONProtocol8writeI64El
libthrift-0.12.0.so:_ZN6apache6thrift8protocol13TJSONProtocol9writeBoolEb
libthrift-0.12.0.so:_ZN6apache6thrift8protocol13TJSONProtocol9writeByteEa
libthrift-0.12.0.so:_ZN6apache6thrift8protocol13TJSONProtocolC1ESt10shared_ptrINS0_9transport10TTransportEE
libthrift-0.12.0.so:_ZN6apache6thrift8protocol13TJSONProtocolC2ESt10shared_ptrINS0_9transport10TTransportEE
libthrift-0.12.0.so:_ZN6apache6thrift8protocol13TJSONProtocolD0Ev
libthrift-0.12.0.so:_ZN6apache6thrift8protocol13TJSONProtocolD1Ev
libthrift-0.12.0.so:_ZN6apache6thrift8protocol13TJSONProtocolD2Ev
libthrift-0.12.0.so:_ZN6apache6thrift8protocol13base64_decodeEPhj
libthrift-0.12.0.so:_ZN6apache6thrift8protocol13base64_encodeEPKhjPh
libthrift-0.12.0.so:_ZN6apache6thrift8protocol14TDebugProtocol10indentDownEv
libthrift-0.12.0.so:_ZN6apache6thrift8protocol14TDebugProtocol10writePlainERKNSt7__cxx1112basic_stringIcSt11char_traitsIcESaIcEEE
libthrift-0.12.0.so:_ZN6apache6thrift8protocol14TDebugProtocol11writeBinaryERKNSt7__cxx1112basic_stringIcSt11char_traitsIcESaIcEEE
libthrift-0.12.0.so:_ZN6apache6thrift8protocol14TDebugProtocol11writeDoubleEd
libthrift-0.12.0.so:_ZN6apache6thrift8protocol14TDebugProtocol11writeMapEndEv
libthrift-0.12.0.so:_ZN6apache6thrift8protocol14TDebugProtocol11writeSetEndEv
libthrift-0.12.0.so:_ZN6apache6thrift8protocol14TDebugProtocol11writeStringERKNSt7__cxx1112basic_stringIcSt11char_traitsIcESaIcEEE
libthrift-0.12.0.so:_ZN6apache6thrift8protocol14TDebugProtocol12writeListEndEv
libthrift-0.12.0.so:_ZN6apache6thrift8protocol14TDebugProtocol13fieldTypeNameB5cxx11ENS1_5TTypeE
libthrift-0.12.0.so:_ZN6apache6thrift8protocol14TDebugProtocol13writeFieldEndEv
libthrift-0.12.0.so:_ZN6apache6thrift8protocol14TDebugProtocol13writeIndentedERKNSt7__cxx1112basic_stringIcSt11char_traitsIcESaIcEEE
libthrift-0.12.0.so:_ZN6apache6thrift8protocol14TDebugProtocol13writeMapBeginENS1_5TTypeES3_j
libthrift-0.12.0.so:_ZN6apache6thrift8protocol14TDebugProtocol13writeSetBeginENS1_5TTypeEj
libthrift-0.12.0.so:_ZN6apache6thrift8protocol14TDebugProtocol14writeFieldStopEv
libthrift-0.12.0.so:_ZN6apache6thrift8protocol14TDebugProtocol14writeListBeginENS1_5TTypeEj
libthrift-0.12.0.so:_ZN6apache6thrift8protocol14TDebugProtocol14writeStructEndEv
libthrift-0.12.0.so:_ZN6apache6thrift8protocol14TDebugProtocol15writeFieldBeginEPKcNS1_5TTypeEs
libthrift-0.12.0.so:_ZN6apache6thrift8protocol14TDebugProtocol15writeMessageEndEv
libthrift-0.12.0.so:_ZN6apache6thrift8protocol14TDebugProtocol16writeStructBeginEPKc
libthrift-0.12.0.so:_ZN6apache6thrift8protocol14TDebugProtocol17writeMessageBeginERKNSt7__cxx1112basic_stringIcSt11char_traitsIcESaIcEEENS1_12TMessageTypeEi
libthrift-0.12.0.so:_ZN6apache6thrift8protocol14TDebugProtocol7endItemEv
libthrift-0.12.0.so:_ZN6apache6thrift8protocol14TDebugProtocol8indentUpEv
libthrift-0.12.0.so:_ZN6apache6thrift8protocol14TDebugProtocol8writeI16Es
libthrift-0.12.0.so:_ZN6apache6thrift8protocol14TDebugProtocol8writeI32Ei
libthrift-0.12.0.so:_ZN6apache6thrift8protocol14TDebugProtocol8writeI64El
libthrift-0.12.0.so:_ZN6apache6thrift8protocol14TDebugProtocol9startItemEv
libthrift-0.12.0.so:_ZN6apache6thrift8protocol14TDebugProtocol9writeBoolEb
libthrift-0.12.0.so:_ZN6apache6thrift8protocol14TDebugProtocol9writeByteEa
libthrift-0.12.0.so:_ZN6apache6thrift8protocol14TDebugProtocol9writeItemERKNSt7__cxx1112basic_stringIcSt11char_traitsIcESaIcEEE
libthrift-0.12.0.so:_ZN6apache6thrift8protocol16TProtocolFactoryD0Ev
libthrift-0.12.0.so:_ZN6apache6thrift8protocol16TProtocolFactoryD1Ev
libthrift-0.12.0.so:_ZN6apache6thrift8protocol16TProtocolFactoryD2Ev
libthrift-0.12.0.so:_ZN6apache6thrift8protocol20TMultiplexedProtocol22writeMessageBegin_virtERKNSt7__cxx1112basic_stringIcSt11char_traitsIcESaIcEEENS1_12TMessageTypeEi
libthrift-0.12.0.so:_ZN6apache6thrift8protocol9TProtocol9skip_virtENS1_5TTypeE
libthrift-0.12.0.so:_ZN6apache6thrift8protocol9TProtocolD0Ev
libthrift-0.12.0.so:_ZN6apache6thrift8protocol9TProtocolD1Ev
libthrift-0.12.0.so:_ZN6apache6thrift8protocol9TProtocolD2Ev
libthrift-0.12.0.so:_ZN6apache6thrift9processor13PeekProcessor10initializeESt10shared_ptrINS0_10TProcessorEES3_INS0_8protocol16TProtocolFactoryEES3_INS0_9transport22TPipedTransportFactoryEE
libthrift-0.12.0.so:_ZN6apache6thrift9processor13PeekProcessor10peekBufferEPhj
libthrift-0.12.0.so:_ZN6apache6thrift9processor13PeekProcessor17getPipedTransportESt10shared_ptrINS0_9transport10TTransportEE
libthrift-0.12.0.so:_ZN6apache6thrift9processor13PeekProcessor18setTargetTransportESt10shared_ptrINS0_9transport10TTransportEE
libthrift-0.12.0.so:_ZN6apache6thrift9processor13PeekProcessor4peekESt10shared_ptrINS0_8protocol9TProtocolEENS4_5TTypeEs
libthrift-0.12.0.so:_ZN6apache6thrift9processor13PeekProcessor7peekEndEv
libthrift-0.12.0.so:_ZN6apache6thrift9processor13PeekProcessor7processESt10shared_ptrINS0_8protocol9TProtocolEES6_Pv
libthrift-0.12.0.so:_ZN6apache6thrift9processor13PeekProcessor8peekNameERKNSt7__cxx1112basic_stringIcSt11char_traitsIcESaIcEEE
libthrift-0.12.0.so:_ZN6apache6thrift9processor13PeekProcessorC1Ev
libthrift-0.12.0.so:_ZN6apache6thrift9processor13PeekProcessorC2Ev
libthrift-0.12.0.so:_ZN6apache6thrift9processor13PeekProcessorD0Ev
libthrift-0.12.0.so:_ZN6apache6thrift9processor13PeekProcessorD1Ev
libthrift-0.12.0.so:_ZN6apache6thrift9processor13PeekProcessorD2Ev
libthrift-0.12.0.so:_ZN6apache6thrift9transport10SSLContext9createSSLEv
libthrift-0.12.0.so:_ZN6apache6thrift9transport10SSLContextC1ERKNS1_11SSLProtocolE
libthrift-0.12.0.so:_ZN6apache6thrift9transport10SSLContextC2ERKNS1_11SSLProtocolE
libthrift-0.12.0.so:_ZN6apache6thrift9transport10SSLContextD0Ev
libthrift-0.12.0.so:_ZN6apache6thrift9transport10SSLContextD1Ev
libthrift-0.12.0.so:_ZN6apache6thrift9transport10SSLContextD2Ev
libthrift-0.12.0.so:_ZN6apache6thrift9transport10TSSLSocket12waitForEventEb
libthrift-0.12.0.so:_ZN6apache6thrift9transport10TSSLSocket13write_partialEPKhj
libthrift-0.12.0.so:_ZN6apache6thrift9transport10TSSLSocket14checkHandshakeEv
libthrift-0.12.0.so:_ZN6apache6thrift9transport10TSSLSocket19initializeHandshakeEv
libthrift-0.12.0.so:_ZN6apache6thrift9transport10TSSLSocket20hasPendingDataToReadEv
libthrift-0.12.0.so:_ZN6apache6thrift9transport10TSSLSocket25initializeHandshakeParamsEv
libthrift-0.12.0.so:_ZN6apache6thrift9transport10TSSLSocket4initEv
libthrift-0.12.0.so:_ZN6apache6thrift9transport10TSSLSocket4openEv
libthrift-0.12.0.so:_ZN6apache6thrift9transport10TSSLSocket4peekEv
libthrift-0.12.0.so:_ZN6apache6thrift9transport10TSSLSocket4readEPhj
libthrift-0.12.0.so:_ZN6apache6thrift9transport10TSSLSocket5closeEv
libthrift-0.12.0.so:_ZN6apache6thrift9transport10TSSLSocket5flushEv
libthrift-0.12.0.so:_ZN6apache6thrift9transport10TSSLSocket5writeEPKhj
libthrift-0.12.0.so:_ZN6apache6thrift9transport10TSSLSocket6isOpenEv
libthrift-0.12.0.so:_ZN6apache6thrift9transport10TSSLSocket9authorizeEv
libthrift-0.12.0.so:_ZN6apache6thrift9transport10TSSLSocketC1ESt10shared_ptrINS1_10SSLContextEE
libthrift-0.12.0.so:_ZN6apache6thrift9transport10TSSLSocketC1ESt10shared_ptrINS1_10SSLContextEENSt7__cxx1112basic_stringIcSt11char_traitsIcESaIcEEEi
libthrift-0.12.0.so:_ZN6apache6thrift9transport10TSSLSocketC1ESt10shared_ptrINS1_10SSLContextEENSt7__cxx1112basic_stringIcSt11char_traitsIcESaIcEEEiS3_IiE
libthrift-0.12.0.so:_ZN6apache6thrift9transport10TSSLSocketC1ESt10shared_ptrINS1_10SSLContextEES3_IiE
libthrift-0.12.0.so:_ZN6apache6thrift9transport10TSSLSocketC1ESt10shared_ptrINS1_10SSLContextEEi
libthrift-0.12.0.so:_ZN6apache6thrift9transport10TSSLSocketC1ESt10shared_ptrINS1_10SSLContextEEiS3_IiE
libthrift-0.12.0.so:_ZN6apache6thrift9transport10TSSLSocketC2ESt10shared_ptrINS1_10SSLContextEE
libthrift-0.12.0.so:_ZN6apache6thrift9transport10TSSLSocketC2ESt10shared_ptrINS1_10SSLContextEENSt7__cxx1112basic_stringIcSt11char_traitsIcESaIcEEEi
libthrift-0.12.0.so:_ZN6apache6thrift9transport10TSSLSocketC2ESt10shared_ptrINS1_10SSLContextEENSt7__cxx1112basic_stringIcSt11char_traitsIcESaIcEEEiS3_IiE
libthrift-0.12.0.so:_ZN6apache6thrift9transport10TSSLSocketC2ESt10shared_ptrINS1_10SSLContextEES3_IiE
libthrift-0.12.0.so:_ZN6apache6thrift9transport10TSSLSocketC2ESt10shared_ptrINS1_10SSLContextEEi
libthrift-0.12.0.so:_ZN6apache6thrift9transport10TSSLSocketC2ESt10shared_ptrINS1_10SSLContextEEiS3_IiE
libthrift-0.12.0.so:_ZN6apache6thrift9transport10TSSLSocketD0Ev
libthrift-0.12.0.so:_ZN6apache6thrift9transport10TSSLSocketD1Ev
libthrift-0.12.0.so:_ZN6apache6thrift9transport10TSSLSocketD2Ev
libthrift-0.12.0.so:_ZN6apache6thrift9transport11THttpClient11parseHeaderEPc
libthrift-0.12.0.so:_ZN6apache6thrift9transport11THttpClient15parseStatusLineEPc
libthrift-0.12.0.so:_ZN6apache6thrift9transport11THttpClient5flushEv
libthrift-0.12.0.so:_ZN6apache6thrift9transport11THttpClientC1ENSt7__cxx1112basic_stringIcSt11char_traitsIcESaIcEEEiS8_
libthrift-0.12.0.so:_ZN6apache6thrift9transport11THttpClientC1ESt10shared_ptrINS1_10TTransportEENSt7__cxx1112basic_stringIcSt11char_traitsIcESaIcEEESB_
libthrift-0.12.0.so:_ZN6apache6thrift9transport11THttpClientC2ENSt7__cxx1112basic_stringIcSt11char_traitsIcESaIcEEEiS8_
libthrift-0.12.0.so:_ZN6apache6thrift9transport11THttpClientC2ESt10shared_ptrINS1_10TTransportEENSt7__cxx1112basic_stringIcSt11char_traitsIcESaIcEEESB_
libthrift-0.12.0.so:_ZN6apache6thrift9transport11THttpClientD0Ev
libthrift-0.12.0.so:_ZN6apache6thrift9transport11THttpClientD1Ev
libthrift-0.12.0.so:_ZN6apache6thrift9transport11THttpClientD2Ev
libthrift-0.12.0.so:_ZN6apache6thrift9transport11THttpServer11parseHeaderEPc
libthrift-0.12.0.so:_ZN6apache6thrift9transport11THttpServer14getTimeRFC1123B5cxx11Ev
libthrift-0.12.0.so:_ZN6apache6thrift9transport11THttpServer15parseStatusLineEPc
libthrift-0.12.0.so:_ZN6apache6thrift9transport11THttpServer5flushEv
libthrift-0.12.0.so:_ZN6apache6thrift9transport11THttpServerC1ESt10shared_ptrINS1_10TTransportEE
libthrift-0.12.0.so:_ZN6apache6thrift9transport11THttpServerC2ESt10shared_ptrINS1_10TTransportEE
libthrift-0.12.0.so:_ZN6apache6thrift9transport11THttpServerD0Ev
libthrift-0.12.0.so:_ZN6apache6thrift9transport11THttpServerD1Ev
libthrift-0.12.0.so:_ZN6apache6thrift9transport11THttpServerD2Ev
libthrift-0.12.0.so:_ZN6apache6thrift9transport11TSocketPool10getServersERSt6vectorISt10shared_ptrINS1_17TSocketPoolServerEESaIS6_EE
libthrift-0.12.0.so:_ZN6apache6thrift9transport11TSocketPool10setServersERKSt6vectorISt10shared_ptrINS1_17TSocketPoolServerEESaIS6_EE
libthrift-0.12.0.so:_ZN6apache6thrift9transport11TSocketPool12setRandomizeEb
libthrift-0.12.0.so:_ZN6apache6thrift9transport11TSocketPool13setNumRetriesEi
libthrift-0.12.0.so:_ZN6apache6thrift9transport11TSocketPool16setAlwaysTryLastEb
libthrift-0.12.0.so:_ZN6apache6thrift9transport11TSocketPool16setCurrentServerERKSt10shared_ptrINS1_17TSocketPoolServerEE
libthrift-0.12.0.so:_ZN6apache6thrift9transport11TSocketPool16setRetryIntervalEi
libthrift-0.12.0.so:_ZN6apache6thrift9transport11TSocketPool25setMaxConsecutiveFailuresEi
libthrift-0.12.0.so:_ZN6apache6thrift9transport11TSocketPool4openEv
libthrift-0.12.0.so:_ZN6apache6thrift9transport11TSocketPool5closeEv
libthrift-0.12.0.so:_ZN6apache6thrift9transport11TSocketPool9addServerERKNSt7__cxx1112basic_stringIcSt11char_traitsIcESaIcEEEi
libthrift-0.12.0.so:_ZN6apache6thrift9transport11TSocketPool9addServerERSt10shared_ptrINS1_17TSocketPoolServerEE
libthrift-0.12.0.so:_ZN6apache6thrift9transport11TSocketPoolC1ERKNSt7__cxx1112basic_stringIcSt11char_traitsIcESaIcEEEi
libthrift-0.12.0.so:_ZN6apache6thrift9transport11TSocketPoolC1ERKSt6vectorINSt7__cxx1112basic_stringIcSt11char_traitsIcESaIcEEESaIS9_EERKS3_IiSaIiEE
libthrift-0.12.0.so:_ZN6apache6thrift9transport11TSocketPoolC1ERKSt6vectorISt10shared_ptrINS1_17TSocketPoolServerEESaIS6_EE
libthrift-0.12.0.so:_ZN6apache6thrift9transport11TSocketPoolC1ERKSt6vectorISt4pairINSt7__cxx1112basic_stringIcSt11char_traitsIcESaIcEEEiESaISB_EE
libthrift-0.12.0.so:_ZN6apache6thrift9transport11TSocketPoolC1Ev
libthrift-0.12.0.so:_ZN6apache6thrift9transport11TSocketPoolC2ERKNSt7__cxx1112basic_stringIcSt11char_traitsIcESaIcEEEi
libthrift-0.12.0.so:_ZN6apache6thrift9transport11TSocketPoolC2ERKSt6vectorINSt7__cxx1112basic_stringIcSt11char_traitsIcESaIcEEESaIS9_EERKS3_IiSaIiEE
libthrift-0.12.0.so:_ZN6apache6thrift9transport11TSocketPoolC2ERKSt6vectorISt10shared_ptrINS1_17TSocketPoolServerEESaIS6_EE
libthrift-0.12.0.so:_ZN6apache6thrift9transport11TSocketPoolC2ERKSt6vectorISt4pairINSt7__cxx1112basic_stringIcSt11char_traitsIcESaIcEEEiESaISB_EE
libthrift-0.12.0.so:_ZN6apache6thrift9transport11TSocketPoolC2Ev
libthrift-0.12.0.so:_ZN6apache6thrift9transport11TSocketPoolD0Ev
libthrift-0.12.0.so:_ZN6apache6thrift9transport11TSocketPoolD1Ev
libthrift-0.12.0.so:_ZN6apache6thrift9transport11TSocketPoolD2Ev
libthrift-0.12.0.so:_ZN6apache6thrift9transport12TFDTransport4readEPhj
libthrift-0.12.0.so:_ZN6apache6thrift9transport12TFDTransport5closeEv
libthrift-0.12.0.so:_ZN6apache6thrift9transport12TFDTransport5writeEPKhj
libthrift-0.12.0.so:_ZN6apache6thrift9transport13TMemoryBuffer10borrowSlowEPhPj
libthrift-0.12.0.so:_ZN6apache6thrift9transport13TMemoryBuffer10wroteBytesEj
libthrift-0.12.0.so:_ZN6apache6thrift9transport13TMemoryBuffer11computeReadEjPPhPj
libthrift-0.12.0.so:_ZN6apache6thrift9transport13TMemoryBuffer14ensureCanWriteEj
libthrift-0.12.0.so:_ZN6apache6thrift9transport13TMemoryBuffer18readAppendToStringERNSt7__cxx1112basic_stringIcSt11char_traitsIcESaIcEEEj
libthrift-0.12.0.so:_ZN6apache6thrift9transport13TMemoryBuffer8readSlowEPhj
libthrift-0.12.0.so:_ZN6apache6thrift9transport13TMemoryBuffer9writeSlowEPKhj
libthrift-0.12.0.so:_ZN6apache6thrift9transport13TServerSocket10acceptImplEv
libthrift-0.12.0.so:_ZN6apache6thrift9transport13TServerSocket12createSocketEi
libthrift-0.12.0.so:_ZN6apache6thrift9transport13TServerSocket13setRetryDelayEi
libthrift-0.12.0.so:_ZN6apache6thrift9transport13TServerSocket13setRetryLimitEi
libthrift-0.12.0.so:_ZN6apache6thrift9transport13TServerSocket14setRecvTimeoutEi
libthrift-0.12.0.so:_ZN6apache6thrift9transport13TServerSocket14setSendTimeoutEi
libthrift-0.12.0.so:_ZN6apache6thrift9transport13TServerSocket16setAcceptBacklogEi
libthrift-0.12.0.so:_ZN6apache6thrift9transport13TServerSocket16setAcceptTimeoutEi
libthrift-0.12.0.so:_ZN6apache6thrift9transport13TServerSocket16setTcpRecvBufferEi
libthrift-0.12.0.so:_ZN6apache6thrift9transport13TServerSocket16setTcpSendBufferEi
libthrift-0.12.0.so:_ZN6apache6thrift9transport13TServerSocket17interruptChildrenEv
libthrift-0.12.0.so:_ZN6apache6thrift9transport13TServerSocket24setInterruptableChildrenEb
libthrift-0.12.0.so:_ZN6apache6thrift9transport13TServerSocket5closeEv
libthrift-0.12.0.so:_ZN6apache6thrift9transport13TServerSocket6listenEv
libthrift-0.12.0.so:_ZN6apache6thrift9transport13TServerSocket6notifyEi
libthrift-0.12.0.so:_ZN6apache6thrift9transport13TServerSocket7getPortEv
libthrift-0.12.0.so:_ZN6apache6thrift9transport13TServerSocket9interruptEv
libthrift-0.12.0.so:_ZN6apache6thrift9transport13TServerSocketC1ERKNSt7__cxx1112basic_stringIcSt11char_traitsIcESaIcEEE
libthrift-0.12.0.so:_ZN6apache6thrift9transport13TServerSocketC1ERKNSt7__cxx1112basic_stringIcSt11char_traitsIcESaIcEEEi
libthrift-0.12.0.so:_ZN6apache6thrift9transport13TServerSocketC1Ei
libthrift-0.12.0.so:_ZN6apache6thrift9transport13TServerSocketC1Eiii
libthrift-0.12.0.so:_ZN6apache6thrift9transport13TServerSocketC2ERKNSt7__cxx1112basic_stringIcSt11char_traitsIcESaIcEEE
libthrift-0.12.0.so:_ZN6apache6thrift9transport13TServerSocketC2ERKNSt7__cxx1112basic_stringIcSt11char_traitsIcESaIcEEEi
libthrift-0.12.0.so:_ZN6apache6thrift9transport13TServerSocketC2Ei
libthrift-0.12.0.so:_ZN6apache6thrift9transport13TServerSocketC2Eiii
libthrift-0.12.0.so:_ZN6apache6thrift9transport13TServerSocketD0Ev
libthrift-0.12.0.so:_ZN6apache6thrift9transport13TServerSocketD1Ev
libthrift-0.12.0.so:_ZN6apache6thrift9transport13TServerSocketD2Ev
libthrift-0.12.0.so:_ZN6apache6thrift9transport14TFileProcessor12processChunkEv
libthrift-0.12.0.so:_ZN6apache6thrift9transport14TFileProcessor7processEjb
libthrift-0.12.0.so:_ZN6apache6thrift9transport14TFileProcessorC1ESt10shared_ptrINS0_10TProcessorEES3_INS0_8protocol16TProtocolFactoryEES3_INS1_20TFileReaderTransportEE
libthrift-0.12.0.so:_ZN6apache6thrift9transport14TFileProcessorC1ESt10shared_ptrINS0_10TProcessorEES3_INS0_8protocol16TProtocolFactoryEES3_INS1_20TFileReaderTransportEES3_INS1_10TTransportEE
libthrift-0.12.0.so:_ZN6apache6thrift9transport14TFileProcessorC1ESt10shared_ptrINS0_10TProcessorEES3_INS0_8protocol16TProtocolFactoryEES8_S3_INS1_20TFileReaderTransportEE
libthrift-0.12.0.so:_ZN6apache6thrift9transport14TFileProcessorC2ESt10shared_ptrINS0_10TProcessorEES3_INS0_8protocol16TProtocolFactoryEES3_INS1_20TFileReaderTransportEE
libthrift-0.12.0.so:_ZN6apache6thrift9transport14TFileProcessorC2ESt10shared_ptrINS0_10TProcessorEES3_INS0_8protocol16TProtocolFactoryEES3_INS1_20TFileReaderTransportEES3_INS1_10TTransportEE
libthrift-0.12.0.so:_ZN6apache6thrift9transport14TFileProcessorC2ESt10shared_ptrINS0_10TProcessorEES3_INS0_8protocol16TProtocolFactoryEES8_S3_INS1_20TFileReaderTransportEE
libthrift-0.12.0.so:_ZN6apache6thrift9transport14TFileTransport11getCurChunkEv
libthrift-0.12.0.so:_ZN6apache6thrift9transport14TFileTransport11openLogFileEv
libthrift-0.12.0.so:_ZN6apache6thrift9transport14TFileTransport11seekToChunkEi
libthrift-0.12.0.so:_ZN6apache6thrift9transport14TFileTransport12enqueueEventEPKhj
libthrift-0.12.0.so:_ZN6apache6thrift9transport14TFileTransport12getNumChunksEv
libthrift-0.12.0.so:_ZN6apache6thrift9transport14TFileTransport12writerThreadEv
libthrift-0.12.0.so:_ZN6apache6thrift9transport14TFileTransport15performRecoveryEv
libthrift-0.12.0.so:_ZN6apache6thrift9transport14TFileTransport15resetOutputFileEiNSt7__cxx1112basic_stringIcSt11char_traitsIcESaIcEEEl
libthrift-0.12.0.so:_ZN6apache6thrift9transport14TFileTransport16getNextFlushTimeEP7timeval
libthrift-0.12.0.so:_ZN6apache6thrift9transport14TFileTransport16isEventCorruptedEv
libthrift-0.12.0.so:_ZN6apache6thrift9transport14TFileTransport16swapEventBuffersEP7timeval
libthrift-0.12.0.so:_ZN6apache6thrift9transport14TFileTransport24initBufferAndWriteThreadEv
libthrift-0.12.0.so:_ZN6apache6thrift9transport14TFileTransport4peekEv
libthrift-0.12.0.so:_ZN6apache6thrift9transport14TFileTransport4readEPhj
libthrift-0.12.0.so:_ZN6apache6thrift9transport14TFileTransport5flushEv
libthrift-0.12.0.so:_ZN6apache6thrift9transport14TFileTransport5writeEPKhj
libthrift-0.12.0.so:_ZN6apache6thrift9transport14TFileTransport7readAllEPhj
libthrift-0.12.0.so:_ZN6apache6thrift9transport14TFileTransport9readEventEv
libthrift-0.12.0.so:_ZN6apache6thrift9transport14TFileTransport9seekToEndEv
libthrift-0.12.0.so:_ZN6apache6thrift9transport14TFileTransportC1ENSt7__cxx1112basic_stringIcSt11char_traitsIcESaIcEEEb
libthrift-0.12.0.so:_ZN6apache6thrift9transport14TFileTransportC2ENSt7__cxx1112basic_stringIcSt11char_traitsIcESaIcEEEb
libthrift-0.12.0.so:_ZN6apache6thrift9transport14TFileTransportD0Ev
libthrift-0.12.0.so:_ZN6apache6thrift9transport14TFileTransportD1Ev
libthrift-0.12.0.so:_ZN6apache6thrift9transport14TFileTransportD2Ev
libthrift-0.12.0.so:_ZN6apache6thrift9transport14THttpTransport11readChunkedEv
libthrift-0.12.0.so:_ZN6apache6thrift9transport14THttpTransport11readContentEj
libthrift-0.12.0.so:_ZN6apache6thrift9transport14THttpTransport11readHeadersEv
libthrift-0.12.0.so:_ZN6apache6thrift9transport14THttpTransport12readMoreDataEv
libthrift-0.12.0.so:_ZN6apache6thrift9transport14THttpTransport14parseChunkSizeEPc
libthrift-0.12.0.so:_ZN6apache6thrift9transport14THttpTransport18readChunkedFootersEv
libthrift-0.12.0.so:_ZN6apache6thrift9transport14THttpTransport4initEv
libthrift-0.12.0.so:_ZN6apache6thrift9transport14THttpTransport4readEPhj
libthrift-0.12.0.so:_ZN6apache6thrift9transport14THttpTransport5shiftEv
libthrift-0.12.0.so:_ZN6apache6thrift9transport14THttpTransport5writeEPKhj
libthrift-0.12.0.so:_ZN6apache6thrift9transport14THttpTransport6refillEv
libthrift-0.12.0.so:_ZN6apache6thrift9transport14THttpTransport7readEndEv
libthrift-0.12.0.so:_ZN6apache6thrift9transport14THttpTransport8readLineEv
libthrift-0.12.0.so:_ZN6apache6thrift9transport14THttpTransport9getOriginB5cxx11Ev
libthrift-0.12.0.so:_ZN6apache6thrift9transport14THttpTransportC1ESt10shared_ptrINS1_10TTransportEE
libthrift-0.12.0.so:_ZN6apache6thrift9transport14THttpTransportC2ESt10shared_ptrINS1_10TTransportEE
libthrift-0.12.0.so:_ZN6apache6thrift9transport14THttpTransportD0Ev
libthrift-0.12.0.so:_ZN6apache6thrift9transport14THttpTransportD1Ev
libthrift-0.12.0.so:_ZN6apache6thrift9transport14THttpTransportD2Ev
libthrift-0.12.0.so:_ZN6apache6thrift9transport14cleanupOpenSSLEv
libthrift-0.12.0.so:_ZN6apache6thrift9transport15TPipedTransport4readEPhj
libthrift-0.12.0.so:_ZN6apache6thrift9transport15TPipedTransport5flushEv
libthrift-0.12.0.so:_ZN6apache6thrift9transport15TPipedTransport5writeEPKhj
libthrift-0.12.0.so:_ZN6apache6thrift9transport16TFramedTransport10borrowSlowEPhPj
libthrift-0.12.0.so:_ZN6apache6thrift9transport16TFramedTransport5flushEv
libthrift-0.12.0.so:_ZN6apache6thrift9transport16TFramedTransport7readEndEv
libthrift-0.12.0.so:_ZN6apache6thrift9transport16TFramedTransport8readSlowEPhj
libthrift-0.12.0.so:_ZN6apache6thrift9transport16TFramedTransport8writeEndEv
libthrift-0.12.0.so:_ZN6apache6thrift9transport16TFramedTransport9readFrameEv
libthrift-0.12.0.so:_ZN6apache6thrift9transport16TFramedTransport9writeSlowEPKhj
libthrift-0.12.0.so:_ZN6apache6thrift9transport16TSSLServerSocket12createSocketEi
libthrift-0.12.0.so:_ZN6apache6thrift9transport16TSSLServerSocketC1ERKNSt7__cxx1112basic_stringIcSt11char_traitsIcESaIcEEEiSt10shared_ptrINS1_17TSSLSocketFactoryEE
libthrift-0.12.0.so:_ZN6apache6thrift9transport16TSSLServerSocketC1EiSt10shared_ptrINS1_17TSSLSocketFactoryEE
libthrift-0.12.0.so:_ZN6apache6thrift9transport16TSSLServerSocketC1EiiiSt10shared_ptrINS1_17TSSLSocketFactoryEE
libthrift-0.12.0.so:_ZN6apache6thrift9transport16TSSLServerSocketC2ERKNSt7__cxx1112basic_stringIcSt11char_traitsIcESaIcEEEiSt10shared_ptrINS1_17TSSLSocketFactoryEE
libthrift-0.12.0.so:_ZN6apache6thrift9transport16TSSLServerSocketC2EiSt10shared_ptrINS1_17TSSLSocketFactoryEE
libthrift-0.12.0.so:_ZN6apache6thrift9transport16TSSLServerSocketC2EiiiSt10shared_ptrINS1_17TSSLSocketFactoryEE
libthrift-0.12.0.so:_ZN6apache6thrift9transport17TSSLSocketFactory12authenticateEb
libthrift-0.12.0.so:_ZN6apache6thrift9transport17TSSLSocketFactory12createSocketERKNSt7__cxx1112basic_stringIcSt11char_traitsIcESaIcEEEi
libthrift-0.12.0.so:_ZN6apache6thrift9transport17TSSLSocketFactory12createSocketERKNSt7__cxx1112basic_stringIcSt11char_traitsIcESaIcEEEiSt10shared_ptrIiE
libthrift-0.12.0.so:_ZN6apache6thrift9transport17TSSLSocketFactory12createSocketESt10shared_ptrIiE
libthrift-0.12.0.so:_ZN6apache6thrift9transport17TSSLSocketFactory12createSocketEi
libthrift-0.12.0.so:_ZN6apache6thrift9transport17TSSLSocketFactory12createSocketEiSt10shared_ptrIiE
libthrift-0.12.0.so:_ZN6apache6thrift9transport17TSSLSocketFactory12createSocketEv
libthrift-0.12.0.so:_ZN6apache6thrift9transport17TSSLSocketFactory14loadPrivateKeyEPKcS4_
libthrift-0.12.0.so:_ZN6apache6thrift9transport17TSSLSocketFactory15loadCertificateEPKcS4_
libthrift-0.12.0.so:_ZN6apache6thrift9transport17TSSLSocketFactory16passwordCallbackEPciiPv
libthrift-0.12.0.so:_ZN6apache6thrift9transport17TSSLSocketFactory23loadTrustedCertificatesEPKcS4_
libthrift-0.12.0.so:_ZN6apache6thrift9transport17TSSLSocketFactory31overrideDefaultPasswordCallbackEv
libthrift-0.12.0.so:_ZN6apache6thrift9transport17TSSLSocketFactory5setupESt10shared_ptrINS1_10TSSLSocketEE
libthrift-0.12.0.so:_ZN6apache6thrift9transport17TSSLSocketFactory7ciphersERKNSt7__cxx1112basic_stringIcSt11char_traitsIcESaIcEEE
libthrift-0.12.0.so:_ZN6apache6thrift9transport17TSSLSocketFactory9randomizeEv
libthrift-0.12.0.so:_ZN6apache6thrift9transport17TSSLSocketFactoryC1ENS1_11SSLProtocolE
libthrift-0.12.0.so:_ZN6apache6thrift9transport17TSSLSocketFactoryC2ENS1_11SSLProtocolE
libthrift-0.12.0.so:_ZN6apache6thrift9transport17TSSLSocketFactoryD0Ev
libthrift-0.12.0.so:_ZN6apache6thrift9transport17TSSLSocketFactoryD1Ev
libthrift-0.12.0.so:_ZN6apache6thrift9transport17TSSLSocketFactoryD2Ev
libthrift-0.12.0.so:_ZN6apache6thrift9transport17TSocketPoolServerC1ERKNSt7__cxx1112basic_stringIcSt11char_traitsIcESaIcEEEi
libthrift-0.12.0.so:_ZN6apache6thrift9transport17TSocketPoolServerC1Ev
libthrift-0.12.0.so:_ZN6apache6thrift9transport17TSocketPoolServerC2ERKNSt7__cxx1112basic_stringIcSt11char_traitsIcESaIcEEEi
libthrift-0.12.0.so:_ZN6apache6thrift9transport17TSocketPoolServerC2Ev
libthrift-0.12.0.so:_ZN6apache6thrift9transport17initializeOpenSSLEv
libthrift-0.12.0.so:_ZN6apache6thrift9transport17setGenericTimeoutEiii
libthrift-0.12.0.so:_ZN6apache6thrift9transport18TBufferedTransport10borrowSlowEPhPj
libthrift-0.12.0.so:_ZN6apache6thrift9transport18TBufferedTransport5flushEv
libthrift-0.12.0.so:_ZN6apache6thrift9transport18TBufferedTransport8readSlowEPhj
libthrift-0.12.0.so:_ZN6apache6thrift9transport18TBufferedTransport9writeSlowEPKhj
libthrift-0.12.0.so:_ZN6apache6thrift9transport19TGetAddrInfoWrapper3resEv
libthrift-0.12.0.so:_ZN6apache6thrift9transport19TGetAddrInfoWrapper4initEv
libthrift-0.12.0.so:_ZN6apache6thrift9transport19TGetAddrInfoWrapperC1EPKcS4_PK8addrinfo
libthrift-0.12.0.so:_ZN6apache6thrift9transport19TGetAddrInfoWrapperC2EPKcS4_PK8addrinfo
libthrift-0.12.0.so:_ZN6apache6thrift9transport19TGetAddrInfoWrapperD0Ev
libthrift-0.12.0.so:_ZN6apache6thrift9transport19TGetAddrInfoWrapperD1Ev
libthrift-0.12.0.so:_ZN6apache6thrift9transport19TGetAddrInfoWrapperD2Ev
libthrift-0.12.0.so:_ZN6apache6thrift9transport20TFileTransportBuffer5resetEv
libthrift-0.12.0.so:_ZN6apache6thrift9transport20TFileTransportBuffer6isFullEv
libthrift-0.12.0.so:_ZN6apache6thrift9transport20TFileTransportBuffer7getNextEv
libthrift-0.12.0.so:_ZN6apache6thrift9transport20TFileTransportBuffer7isEmptyEv
libthrift-0.12.0.so:_ZN6apache6thrift9transport20TFileTransportBuffer8addEventEPNS1_9eventInfoE
libthrift-0.12.0.so:_ZN6apache6thrift9transport20TFileTransportBufferC1Ej
libthrift-0.12.0.so:_ZN6apache6thrift9transport20TFileTransportBufferC2Ej
libthrift-0.12.0.so:_ZN6apache6thrift9transport20TFileTransportBufferD1Ev
libthrift-0.12.0.so:_ZN6apache6thrift9transport20TFileTransportBufferD2Ev
libthrift-0.12.0.so:_ZN6apache6thrift9transport20TSimpleFileTransportC1ERKNSt7__cxx1112basic_stringIcSt11char_traitsIcESaIcEEEbb
libthrift-0.12.0.so:_ZN6apache6thrift9transport20TSimpleFileTransportC2ERKNSt7__cxx1112basic_stringIcSt11char_traitsIcESaIcEEEbb
libthrift-0.12.0.so:_ZN6apache6thrift9transport24TNonblockingServerSocket10acceptImplEv
libthrift-0.12.0.so:_ZN6apache6thrift9transport24TNonblockingServerSocket12createSocketEi
libthrift-0.12.0.so:_ZN6apache6thrift9transport24TNonblockingServerSocket13getListenPortEv
libthrift-0.12.0.so:_ZN6apache6thrift9transport24TNonblockingServerSocket13setRetryDelayEi
libthrift-0.12.0.so:_ZN6apache6thrift9transport24TNonblockingServerSocket13setRetryLimitEi
libthrift-0.12.0.so:_ZN6apache6thrift9transport24TNonblockingServerSocket14setRecvTimeoutEi
libthrift-0.12.0.so:_ZN6apache6thrift9transport24TNonblockingServerSocket14setSendTimeoutEi
libthrift-0.12.0.so:_ZN6apache6thrift9transport24TNonblockingServerSocket16setAcceptBacklogEi
libthrift-0.12.0.so:_ZN6apache6thrift9transport24TNonblockingServerSocket16setTcpRecvBufferEi
libthrift-0.12.0.so:_ZN6apache6thrift9transport24TNonblockingServerSocket16setTcpSendBufferEi
libthrift-0.12.0.so:_ZN6apache6thrift9transport24TNonblockingServerSocket5closeEv
libthrift-0.12.0.so:_ZN6apache6thrift9transport24TNonblockingServerSocket6listenEv
libthrift-0.12.0.so:_ZN6apache6thrift9transport24TNonblockingServerSocket7getPortEv
libthrift-0.12.0.so:_ZN6apache6thrift9transport24TNonblockingServerSocketC1ERKNSt7__cxx1112basic_stringIcSt11char_traitsIcESaIcEEE
libthrift-0.12.0.so:_ZN6apache6thrift9transport24TNonblockingServerSocketC1ERKNSt7__cxx1112basic_stringIcSt11char_traitsIcESaIcEEEi
libthrift-0.12.0.so:_ZN6apache6thrift9transport24TNonblockingServerSocketC1Ei
libthrift-0.12.0.so:_ZN6apache6thrift9transport24TNonblockingServerSocketC1Eiii
libthrift-0.12.0.so:_ZN6apache6thrift9transport24TNonblockingServerSocketC2ERKNSt7__cxx1112basic_stringIcSt11char_traitsIcESaIcEEE
libthrift-0.12.0.so:_ZN6apache6thrift9transport24TNonblockingServerSocketC2ERKNSt7__cxx1112basic_stringIcSt11char_traitsIcESaIcEEEi
libthrift-0.12.0.so:_ZN6apache6thrift9transport24TNonblockingServerSocketC2Ei
libthrift-0.12.0.so:_ZN6apache6thrift9transport24TNonblockingServerSocketC2Eiii
libthrift-0.12.0.so:_ZN6apache6thrift9transport24TNonblockingServerSocketD0Ev
libthrift-0.12.0.so:_ZN6apache6thrift9transport24TNonblockingServerSocketD1Ev
libthrift-0.12.0.so:_ZN6apache6thrift9transport24TNonblockingServerSocketD2Ev
libthrift-0.12.0.so:_ZN6apache6thrift9transport25TPipedFileReaderTransport11getCurChunkEv
libthrift-0.12.0.so:_ZN6apache6thrift9transport25TPipedFileReaderTransport11seekToChunkEi
libthrift-0.12.0.so:_ZN6apache6thrift9transport25TPipedFileReaderTransport12getNumChunksEv
libthrift-0.12.0.so:_ZN6apache6thrift9transport25TPipedFileReaderTransport14getReadTimeoutEv
libthrift-0.12.0.so:_ZN6apache6thrift9transport25TPipedFileReaderTransport14setReadTimeoutEi
libthrift-0.12.0.so:_ZN6apache6thrift9transport25TPipedFileReaderTransport4openEv
libthrift-0.12.0.so:_ZN6apache6thrift9transport25TPipedFileReaderTransport4peekEv
libthrift-0.12.0.so:_ZN6apache6thrift9transport25TPipedFileReaderTransport4readEPhj
libthrift-0.12.0.so:_ZN6apache6thrift9transport25TPipedFileReaderTransport5closeEv
libthrift-0.12.0.so:_ZN6apache6thrift9transport25TPipedFileReaderTransport5flushEv
libthrift-0.12.0.so:_ZN6apache6thrift9transport25TPipedFileReaderTransport5writeEPKhj
libthrift-0.12.0.so:_ZN6apache6thrift9transport25TPipedFileReaderTransport6isOpenEv
libthrift-0.12.0.so:_ZN6apache6thrift9transport25TPipedFileReaderTransport7readAllEPhj
libthrift-0.12.0.so:_ZN6apache6thrift9transport25TPipedFileReaderTransport7readEndEv
libthrift-0.12.0.so:_ZN6apache6thrift9transport25TPipedFileReaderTransport8writeEndEv
libthrift-0.12.0.so:_ZN6apache6thrift9transport25TPipedFileReaderTransport9seekToEndEv
libthrift-0.12.0.so:_ZN6apache6thrift9transport25TPipedFileReaderTransportC1ESt10shared_ptrINS1_20TFileReaderTransportEES3_INS1_10TTransportEE
libthrift-0.12.0.so:_ZN6apache6thrift9transport25TPipedFileReaderTransportC2ESt10shared_ptrINS1_20TFileReaderTransportEES3_INS1_10TTransportEE
libthrift-0.12.0.so:_ZN6apache6thrift9transport25TPipedFileReaderTransportD0Ev
libthrift-0.12.0.so:_ZN6apache6thrift9transport25TPipedFileReaderTransportD1Ev
libthrift-0.12.0.so:_ZN6apache6thrift9transport25TPipedFileReaderTransportD2Ev
libthrift-0.12.0.so:_ZN6apache6thrift9transport26DefaultClientAccessManager6verifyERK16sockaddr_storage
libthrift-0.12.0.so:_ZN6apache6thrift9transport26DefaultClientAccessManager6verifyERK16sockaddr_storagePKci
libthrift-0.12.0.so:_ZN6apache6thrift9transport26DefaultClientAccessManager6verifyERKNSt7__cxx1112basic_stringIcSt11char_traitsIcESaIcEEEPKci
libthrift-0.12.0.so:_ZN6apache6thrift9transport27TNonblockingSSLServerSocket12createSocketEi
libthrift-0.12.0.so:_ZN6apache6thrift9transport27TNonblockingSSLServerSocketC1ERKNSt7__cxx1112basic_stringIcSt11char_traitsIcESaIcEEEiSt10shared_ptrINS1_17TSSLSocketFactoryEE
libthrift-0.12.0.so:_ZN6apache6thrift9transport27TNonblockingSSLServerSocketC1EiSt10shared_ptrINS1_17TSSLSocketFactoryEE
libthrift-0.12.0.so:_ZN6apache6thrift9transport27TNonblockingSSLServerSocketC1EiiiSt10shared_ptrINS1_17TSSLSocketFactoryEE
libthrift-0.12.0.so:_ZN6apache6thrift9transport27TNonblockingSSLServerSocketC2ERKNSt7__cxx1112basic_stringIcSt11char_traitsIcESaIcEEEiSt10shared_ptrINS1_17TSSLSocketFactoryEE
libthrift-0.12.0.so:_ZN6apache6thrift9transport27TNonblockingSSLServerSocketC2EiSt10shared_ptrINS1_17TSSLSocketFactoryEE
libthrift-0.12.0.so:_ZN6apache6thrift9transport27TNonblockingSSLServerSocketC2EiiiSt10shared_ptrINS1_17TSSLSocketFactoryEE
libthrift-0.12.0.so:_ZN6apache6thrift9transport7TSocket10local_openEv
libthrift-0.12.0.so:_ZN6apache6thrift9transport7TSocket10setNoDelayEb
libthrift-0.12.0.so:_ZN6apache6thrift9transport7TSocket11getPeerHostB5cxx11Ev
libthrift-0.12.0.so:_ZN6apache6thrift9transport7TSocket11getPeerPortEv
libthrift-0.12.0.so:_ZN6apache6thrift9transport7TSocket11setSocketFDEi
libthrift-0.12.0.so:_ZN6apache6thrift9transport7TSocket12setKeepAliveEb
libthrift-0.12.0.so:_ZN6apache6thrift9transport7TSocket13getSocketInfoB5cxx11Ev
libthrift-0.12.0.so:_ZN6apache6thrift9transport7TSocket13write_partialEPKhj
libthrift-0.12.0.so:_ZN6apache6thrift9transport7TSocket14getPeerAddressB5cxx11Ev
libthrift-0.12.0.so:_ZN6apache6thrift9transport7TSocket14openConnectionEP8addrinfo
libthrift-0.12.0.so:_ZN6apache6thrift9transport7TSocket14setConnTimeoutEi
libthrift-0.12.0.so:_ZN6apache6thrift9transport7TSocket14setRecvTimeoutEi
libthrift-0.12.0.so:_ZN6apache6thrift9transport7TSocket14setSendTimeoutEi
libthrift-0.12.0.so:_ZN6apache6thrift9transport7TSocket15getUseLowMinRtoEv
libthrift-0.12.0.so:_ZN6apache6thrift9transport7TSocket15setUseLowMinRtoEb
libthrift-0.12.0.so:_ZN6apache6thrift9transport7TSocket16setCachedAddressEPK8sockaddrj
libthrift-0.12.0.so:_ZN6apache6thrift9transport7TSocket17setMaxRecvRetriesEi
libthrift-0.12.0.so:_ZN6apache6thrift9transport7TSocket20hasPendingDataToReadEv
libthrift-0.12.0.so:_ZN6apache6thrift9transport7TSocket4openEv
libthrift-0.12.0.so:_ZN6apache6thrift9transport7TSocket4peekEv
libthrift-0.12.0.so:_ZN6apache6thrift9transport7TSocket4readEPhj
libthrift-0.12.0.so:_ZN6apache6thrift9transport7TSocket5closeEv
libthrift-0.12.0.so:_ZN6apache6thrift9transport7TSocket5writeEPKhj
libthrift-0.12.0.so:_ZN6apache6thrift9transport7TSocket6isOpenEv
libthrift-0.12.0.so:_ZN6apache6thrift9transport7TSocket7getHostB5cxx11Ev
libthrift-0.12.0.so:_ZN6apache6thrift9transport7TSocket7getPortEv
libthrift-0.12.0.so:_ZN6apache6thrift9transport7TSocket7setHostENSt7__cxx1112basic_stringIcSt11char_traitsIcESaIcEEE
libthrift-0.12.0.so:_ZN6apache6thrift9transport7TSocket7setPortEi
libthrift-0.12.0.so:_ZN6apache6thrift9transport7TSocket9getOriginB5cxx11Ev
libthrift-0.12.0.so:_ZN6apache6thrift9transport7TSocket9setLingerEbi
libthrift-0.12.0.so:_ZN6apache6thrift9transport7TSocket9unix_openEv
libthrift-0.12.0.so:_ZN6apache6thrift9transport7TSocketC1ERKNSt7__cxx1112basic_stringIcSt11char_traitsIcESaIcEEE
libthrift-0.12.0.so:_ZN6apache6thrift9transport7TSocketC1ERKNSt7__cxx1112basic_stringIcSt11char_traitsIcESaIcEEEi
libthrift-0.12.0.so:_ZN6apache6thrift9transport7TSocketC1Ei
libthrift-0.12.0.so:_ZN6apache6thrift9transport7TSocketC1EiSt10shared_ptrIiE
libthrift-0.12.0.so:_ZN6apache6thrift9transport7TSocketC1Ev
libthrift-0.12.0.so:_ZN6apache6thrift9transport7TSocketC2ERKNSt7__cxx1112basic_stringIcSt11char_traitsIcESaIcEEE
libthrift-0.12.0.so:_ZN6apache6thrift9transport7TSocketC2ERKNSt7__cxx1112basic_stringIcSt11char_traitsIcESaIcEEEi
libthrift-0.12.0.so:_ZN6apache6thrift9transport7TSocketC2Ei
libthrift-0.12.0.so:_ZN6apache6thrift9transport7TSocketC2EiSt10shared_ptrIiE
libthrift-0.12.0.so:_ZN6apache6thrift9transport7TSocketC2Ev
libthrift-0.12.0.so:_ZN6apache6thrift9transport7TSocketD0Ev
libthrift-0.12.0.so:_ZN6apache6thrift9transport7TSocketD1Ev
libthrift-0.12.0.so:_ZN6apache6thrift9transport7TSocketD2Ev
libthrift-0.12.0.so:_ZNK6apache6thrift11concurrency12TimerManager13threadFactoryEv
libthrift-0.12.0.so:_ZNK6apache6thrift11concurrency12TimerManager5stateEv
libthrift-0.12.0.so:_ZNK6apache6thrift11concurrency12TimerManager9taskCountEv
libthrift-0.12.0.so:_ZNK6apache6thrift11concurrency13ThreadManager4Impl8canSleepEv
libthrift-0.12.0.so:_ZNK6apache6thrift11concurrency14ReadWriteMutex11acquireReadEv
libthrift-0.12.0.so:_ZNK6apache6thrift11concurrency14ReadWriteMutex11attemptReadEv
libthrift-0.12.0.so:_ZNK6apache6thrift11concurrency14ReadWriteMutex12acquireWriteEv
libthrift-0.12.0.so:_ZNK6apache6thrift11concurrency14ReadWriteMutex12attemptWriteEv
libthrift-0.12.0.so:_ZNK6apache6thrift11concurrency14ReadWriteMutex7releaseEv
libthrift-0.12.0.so:_ZNK6apache6thrift11concurrency18PosixThreadFactory11getPriorityEv
libthrift-0.12.0.so:_ZNK6apache6thrift11concurrency18PosixThreadFactory12getStackSizeEv
libthrift-0.12.0.so:_ZNK6apache6thrift11concurrency18PosixThreadFactory18getCurrentThreadIdEv
libthrift-0.12.0.so:_ZNK6apache6thrift11concurrency18PosixThreadFactory9newThreadESt10shared_ptrINS1_8RunnableEE
libthrift-0.12.0.so:_ZNK6apache6thrift11concurrency22NoStarveReadWriteMutex11acquireReadEv
libthrift-0.12.0.so:_ZNK6apache6thrift11concurrency22NoStarveReadWriteMutex12acquireWriteEv
libthrift-0.12.0.so:_ZNK6apache6thrift11concurrency5Mutex17getUnderlyingImplEv
libthrift-0.12.0.so:_ZNK6apache6thrift11concurrency5Mutex4lockEv
libthrift-0.12.0.so:_ZNK6apache6thrift11concurrency5Mutex6unlockEv
libthrift-0.12.0.so:_ZNK6apache6thrift11concurrency5Mutex7trylockEv
libthrift-0.12.0.so:_ZNK6apache6thrift11concurrency5Mutex9timedlockEl
libthrift-0.12.0.so:_ZNK6apache6thrift11concurrency7Monitor11waitForTimeEPK7timeval
libthrift-0.12.0.so:_ZNK6apache6thrift11concurrency7Monitor11waitForTimeEPK8timespec
libthrift-0.12.0.so:_ZNK6apache6thrift11concurrency7Monitor11waitForeverEv
libthrift-0.12.0.so:_ZNK6apache6thrift11concurrency7Monitor19waitForTimeRelativeEl
libthrift-0.12.0.so:_ZNK6apache6thrift11concurrency7Monitor4lockEv
libthrift-0.12.0.so:_ZNK6apache6thrift11concurrency7Monitor4waitEl
libthrift-0.12.0.so:_ZNK6apache6thrift11concurrency7Monitor5mutexEv
libthrift-0.12.0.so:_ZNK6apache6thrift11concurrency7Monitor6notifyEv
libthrift-0.12.0.so:_ZNK6apache6thrift11concurrency7Monitor6unlockEv
libthrift-0.12.0.so:_ZNK6apache6thrift11concurrency7Monitor9notifyAllEv
libthrift-0.12.0.so:_ZNK6apache6thrift21TApplicationException5writeEPNS0_8protocol9TProtocolE
libthrift-0.12.0.so:_ZNK6apache6thrift6server16TServerFramework24getConcurrentClientCountEv
libthrift-0.12.0.so:_ZNK6apache6thrift6server16TServerFramework24getConcurrentClientLimitEv
libthrift-0.12.0.so:_ZNK6apache6thrift6server16TServerFramework27getConcurrentClientCountHWMEv
libthrift-0.12.0.so:_ZNK6apache6thrift6server17TThreadPoolServer10getTimeoutEv
libthrift-0.12.0.so:_ZNK6apache6thrift6server17TThreadPoolServer16getThreadManagerEv
libthrift-0.12.0.so:_ZNK6apache6thrift6server17TThreadPoolServer17getTaskExpirationEv
libthrift-0.12.0.so:_ZNK6apache6thrift9transport19TTransportException4whatEv
libthrift-0.12.0.so:_ZNK6apache6thrift9transport7TSocket16getCachedAddressEPj
libthrift-0.12.0.so:_ZThn88_N6apache6thrift9transport25TPipedFileReaderTransport11getCurChunkEv
libthrift-0.12.0.so:_ZThn88_N6apache6thrift9transport25TPipedFileReaderTransport11seekToChunkEi
libthrift-0.12.0.so:_ZThn88_N6apache6thrift9transport25TPipedFileReaderTransport12getNumChunksEv
libthrift-0.12.0.so:_ZThn88_N6apache6thrift9transport25TPipedFileReaderTransport14getReadTimeoutEv
libthrift-0.12.0.so:_ZThn88_N6apache6thrift9transport25TPipedFileReaderTransport14setReadTimeoutEi
libthrift-0.12.0.so:_ZThn88_N6apache6thrift9transport25TPipedFileReaderTransport9seekToEndEv
libthrift-0.12.0.so:_ZThn88_N6apache6thrift9transport25TPipedFileReaderTransportD0Ev
libthrift-0.12.0.so:_ZThn88_N6apache6thrift9transport25TPipedFileReaderTransportD1Ev
libthrift-0.12.0.so:_ZThn8_N6apache6thrift9transport14TFileTransportD0Ev
libthrift-0.12.0.so:_ZThn8_N6apache6thrift9transport14TFileTransportD1Ev
libthrift-0.12.0.so:_ZTv0_n104_N6apache6thrift9transport14TFileTransport5flushEv
libthrift-0.12.0.so:_ZTv0_n104_N6apache6thrift9transport15TPipedTransport5flushEv
libthrift-0.12.0.so:_ZTv0_n104_N6apache6thrift9transport25TPipedFileReaderTransport5flushEv
libthrift-0.12.0.so:_ZTv0_n24_N6apache6thrift9transport14TFileTransportD0Ev
libthrift-0.12.0.so:_ZTv0_n24_N6apache6thrift9transport14TFileTransportD1Ev
libthrift-0.12.0.so:_ZTv0_n24_N6apache6thrift9transport25TPipedFileReaderTransportD0Ev
libthrift-0.12.0.so:_ZTv0_n24_N6apache6thrift9transport25TPipedFileReaderTransportD1Ev
libthrift-0.12.0.so:_ZTv0_n32_N6apache6thrift9transport25TPipedFileReaderTransport6isOpenEv
libthrift-0.12.0.so:_ZTv0_n40_N6apache6thrift9transport14TFileTransport4peekEv
libthrift-0.12.0.so:_ZTv0_n40_N6apache6thrift9transport25TPipedFileReaderTransport4peekEv
libthrift-0.12.0.so:_ZTv0_n48_N6apache6thrift9transport25TPipedFileReaderTransport4openEv
libthrift-0.12.0.so:_ZTv0_n56_N6apache6thrift9transport25TPipedFileReaderTransport5closeEv
libthrift-0.12.0.so:_ZTv0_n80_N6apache6thrift9transport25TPipedFileReaderTransport7readEndEv
libthrift-0.12.0.so:_ZTv0_n96_N6apache6thrift9transport25TPipedFileReaderTransport8writeEndEv
libthrift_c_glib.so.0:thrift_application_exception_error_quark
libthrift_c_glib.so.0:thrift_application_exception_finalize
libthrift_c_glib.so.0:thrift_application_exception_get_type
libthrift_c_glib.so.0:thrift_application_exception_read
libthrift_c_glib.so.0:thrift_application_exception_write
libthrift_c_glib.so.0:thrift_binary_protocol_factory_get_protocol
libthrift_c_glib.so.0:thrift_binary_protocol_factory_get_type
libthrift_c_glib.so.0:thrift_binary_protocol_get_type
libthrift_c_glib.so.0:thrift_binary_protocol_read_binary
libthrift_c_glib.so.0:thrift_binary_protocol_read_bool
libthrift_c_glib.so.0:thrift_binary_protocol_read_byte
libthrift_c_glib.so.0:thrift_binary_protocol_read_double
libthrift_c_glib.so.0:thrift_binary_protocol_read_field_begin
libthrift_c_glib.so.0:thrift_binary_protocol_read_field_end
libthrift_c_glib.so.0:thrift_binary_protocol_read_i16
libthrift_c_glib.so.0:thrift_binary_protocol_read_i32
libthrift_c_glib.so.0:thrift_binary_protocol_read_i64
libthrift_c_glib.so.0:thrift_binary_protocol_read_list_begin
libthrift_c_glib.so.0:thrift_binary_protocol_read_list_end
libthrift_c_glib.so.0:thrift_binary_protocol_read_map_begin
libthrift_c_glib.so.0:thrift_binary_protocol_read_map_end
libthrift_c_glib.so.0:thrift_binary_protocol_read_message_begin
libthrift_c_glib.so.0:thrift_binary_protocol_read_message_end
libthrift_c_glib.so.0:thrift_binary_protocol_read_set_begin
libthrift_c_glib.so.0:thrift_binary_protocol_read_set_end
libthrift_c_glib.so.0:thrift_binary_protocol_read_string
libthrift_c_glib.so.0:thrift_binary_protocol_read_struct_begin
libthrift_c_glib.so.0:thrift_binary_protocol_read_struct_end
libthrift_c_glib.so.0:thrift_binary_protocol_write_binary
libthrift_c_glib.so.0:thrift_binary_protocol_write_bool
libthrift_c_glib.so.0:thrift_binary_protocol_write_byte
libthrift_c_glib.so.0:thrift_binary_protocol_write_double
libthrift_c_glib.so.0:thrift_binary_protocol_write_field_begin
libthrift_c_glib.so.0:thrift_binary_protocol_write_field_end
libthrift_c_glib.so.0:thrift_binary_protocol_write_field_stop
libthrift_c_glib.so.0:thrift_binary_protocol_write_i16
libthrift_c_glib.so.0:thrift_binary_protocol_write_i32
libthrift_c_glib.so.0:thrift_binary_protocol_write_i64
libthrift_c_glib.so.0:thrift_binary_protocol_write_list_begin
libthrift_c_glib.so.0:thrift_binary_protocol_write_list_end
libthrift_c_glib.so.0:thrift_binary_protocol_write_map_begin
libthrift_c_glib.so.0:thrift_binary_protocol_write_map_end
libthrift_c_glib.so.0:thrift_binary_protocol_write_message_begin
libthrift_c_glib.so.0:thrift_binary_protocol_write_message_end
libthrift_c_glib.so.0:thrift_binary_protocol_write_set_begin
libthrift_c_glib.so.0:thrift_binary_protocol_write_set_end
libthrift_c_glib.so.0:thrift_binary_protocol_write_string
libthrift_c_glib.so.0:thrift_binary_protocol_write_struct_begin
libthrift_c_glib.so.0:thrift_binary_protocol_write_struct_end
libthrift_c_glib.so.0:thrift_boolean_equal
libthrift_c_glib.so.0:thrift_boolean_hash
libthrift_c_glib.so.0:thrift_buffered_transport_close
libthrift_c_glib.so.0:thrift_buffered_transport_factory_get_transport
libthrift_c_glib.so.0:thrift_buffered_transport_factory_get_type
libthrift_c_glib.so.0:thrift_buffered_transport_flush
libthrift_c_glib.so.0:thrift_buffered_transport_get_property
libthrift_c_glib.so.0:thrift_buffered_transport_get_type
libthrift_c_glib.so.0:thrift_buffered_transport_is_open
libthrift_c_glib.so.0:thrift_buffered_transport_open
libthrift_c_glib.so.0:thrift_buffered_transport_peek
libthrift_c_glib.so.0:thrift_buffered_transport_read
libthrift_c_glib.so.0:thrift_buffered_transport_read_end
libthrift_c_glib.so.0:thrift_buffered_transport_read_slow
libthrift_c_glib.so.0:thrift_buffered_transport_set_property
libthrift_c_glib.so.0:thrift_buffered_transport_write
libthrift_c_glib.so.0:thrift_buffered_transport_write_end
libthrift_c_glib.so.0:thrift_buffered_transport_write_slow
libthrift_c_glib.so.0:thrift_compact_protocol_factory_get_property
libthrift_c_glib.so.0:thrift_compact_protocol_factory_get_protocol
libthrift_c_glib.so.0:thrift_compact_protocol_factory_get_type
libthrift_c_glib.so.0:thrift_compact_protocol_factory_set_property
libthrift_c_glib.so.0:thrift_compact_protocol_get_property
libthrift_c_glib.so.0:thrift_compact_protocol_get_ttype
libthrift_c_glib.so.0:thrift_compact_protocol_get_type
libthrift_c_glib.so.0:thrift_compact_protocol_read_binary
libthrift_c_glib.so.0:thrift_compact_protocol_read_bool
libthrift_c_glib.so.0:thrift_compact_protocol_read_byte
libthrift_c_glib.so.0:thrift_compact_protocol_read_double
libthrift_c_glib.so.0:thrift_compact_protocol_read_field_begin
libthrift_c_glib.so.0:thrift_compact_protocol_read_field_end
libthrift_c_glib.so.0:thrift_compact_protocol_read_i16
libthrift_c_glib.so.0:thrift_compact_protocol_read_i32
libthrift_c_glib.so.0:thrift_compact_protocol_read_i64
libthrift_c_glib.so.0:thrift_compact_protocol_read_list_begin
libthrift_c_glib.so.0:thrift_compact_protocol_read_list_end
libthrift_c_glib.so.0:thrift_compact_protocol_read_map_begin
libthrift_c_glib.so.0:thrift_compact_protocol_read_map_end
libthrift_c_glib.so.0:thrift_compact_protocol_read_message_begin
libthrift_c_glib.so.0:thrift_compact_protocol_read_message_end
libthrift_c_glib.so.0:thrift_compact_protocol_read_set_begin
libthrift_c_glib.so.0:thrift_compact_protocol_read_set_end
libthrift_c_glib.so.0:thrift_compact_protocol_read_string
libthrift_c_glib.so.0:thrift_compact_protocol_read_struct_begin
libthrift_c_glib.so.0:thrift_compact_protocol_read_struct_end
libthrift_c_glib.so.0:thrift_compact_protocol_read_varint32
libthrift_c_glib.so.0:thrift_compact_protocol_read_varint64
libthrift_c_glib.so.0:thrift_compact_protocol_set_property
libthrift_c_glib.so.0:thrift_compact_protocol_write_binary
libthrift_c_glib.so.0:thrift_compact_protocol_write_bool
libthrift_c_glib.so.0:thrift_compact_protocol_write_byte
libthrift_c_glib.so.0:thrift_compact_protocol_write_collection_begin
libthrift_c_glib.so.0:thrift_compact_protocol_write_double
libthrift_c_glib.so.0:thrift_compact_protocol_write_field_begin
libthrift_c_glib.so.0:thrift_compact_protocol_write_field_begin_internal
libthrift_c_glib.so.0:thrift_compact_protocol_write_field_end
libthrift_c_glib.so.0:thrift_compact_protocol_write_field_stop
libthrift_c_glib.so.0:thrift_compact_protocol_write_i16
libthrift_c_glib.so.0:thrift_compact_protocol_write_i32
libthrift_c_glib.so.0:thrift_compact_protocol_write_i64
libthrift_c_glib.so.0:thrift_compact_protocol_write_list_begin
libthrift_c_glib.so.0:thrift_compact_protocol_write_list_end
libthrift_c_glib.so.0:thrift_compact_protocol_write_map_begin
libthrift_c_glib.so.0:thrift_compact_protocol_write_map_end
libthrift_c_glib.so.0:thrift_compact_protocol_write_message_begin
libthrift_c_glib.so.0:thrift_compact_protocol_write_message_end
libthrift_c_glib.so.0:thrift_compact_protocol_write_set_begin
libthrift_c_glib.so.0:thrift_compact_protocol_write_set_end
libthrift_c_glib.so.0:thrift_compact_protocol_write_string
libthrift_c_glib.so.0:thrift_compact_protocol_write_struct_begin
libthrift_c_glib.so.0:thrift_compact_protocol_write_struct_end
libthrift_c_glib.so.0:thrift_compact_protocol_write_varint32
libthrift_c_glib.so.0:thrift_compact_protocol_write_varint64
libthrift_c_glib.so.0:thrift_dispatch_processor_get_type
libthrift_c_glib.so.0:thrift_dispatch_processor_process
libthrift_c_glib.so.0:thrift_fd_transport_close
libthrift_c_glib.so.0:thrift_fd_transport_flush
libthrift_c_glib.so.0:thrift_fd_transport_get_property
libthrift_c_glib.so.0:thrift_fd_transport_get_type
libthrift_c_glib.so.0:thrift_fd_transport_is_open
libthrift_c_glib.so.0:thrift_fd_transport_open
libthrift_c_glib.so.0:thrift_fd_transport_read
libthrift_c_glib.so.0:thrift_fd_transport_read_end
libthrift_c_glib.so.0:thrift_fd_transport_set_property
libthrift_c_glib.so.0:thrift_fd_transport_write
libthrift_c_glib.so.0:thrift_fd_transport_write_end
libthrift_c_glib.so.0:thrift_framed_transport_close
libthrift_c_glib.so.0:thrift_framed_transport_factory_get_transport
libthrift_c_glib.so.0:thrift_framed_transport_factory_get_type
libthrift_c_glib.so.0:thrift_framed_transport_flush
libthrift_c_glib.so.0:thrift_framed_transport_get_property
libthrift_c_glib.so.0:thrift_framed_transport_get_type
libthrift_c_glib.so.0:thrift_framed_transport_is_open
libthrift_c_glib.so.0:thrift_framed_transport_open
libthrift_c_glib.so.0:thrift_framed_transport_peek
libthrift_c_glib.so.0:thrift_framed_transport_read
libthrift_c_glib.so.0:thrift_framed_transport_read_end
libthrift_c_glib.so.0:thrift_framed_transport_read_frame
libthrift_c_glib.so.0:thrift_framed_transport_read_slow
libthrift_c_glib.so.0:thrift_framed_transport_set_property
libthrift_c_glib.so.0:thrift_framed_transport_write
libthrift_c_glib.so.0:thrift_framed_transport_write_end
libthrift_c_glib.so.0:thrift_framed_transport_write_slow
libthrift_c_glib.so.0:thrift_hash_table_get_keys
libthrift_c_glib.so.0:thrift_int16_equal
libthrift_c_glib.so.0:thrift_int16_hash
libthrift_c_glib.so.0:thrift_int8_equal
libthrift_c_glib.so.0:thrift_int8_hash
libthrift_c_glib.so.0:thrift_memory_buffer_close
libthrift_c_glib.so.0:thrift_memory_buffer_flush
libthrift_c_glib.so.0:thrift_memory_buffer_get_property
libthrift_c_glib.so.0:thrift_memory_buffer_get_type
libthrift_c_glib.so.0:thrift_memory_buffer_is_open
libthrift_c_glib.so.0:thrift_memory_buffer_open
libthrift_c_glib.so.0:thrift_memory_buffer_read
libthrift_c_glib.so.0:thrift_memory_buffer_read_end
libthrift_c_glib.so.0:thrift_memory_buffer_set_property
libthrift_c_glib.so.0:thrift_memory_buffer_write
libthrift_c_glib.so.0:thrift_memory_buffer_write_end
libthrift_c_glib.so.0:thrift_multiplexed_processor_error_quark
libthrift_c_glib.so.0:thrift_multiplexed_processor_get_type
libthrift_c_glib.so.0:thrift_multiplexed_processor_register_processor
libthrift_c_glib.so.0:thrift_multiplexed_protocol_get_type
libthrift_c_glib.so.0:thrift_multiplexed_protocol_write_message_begin
libthrift_c_glib.so.0:thrift_processor_get_type
libthrift_c_glib.so.0:thrift_processor_process
libthrift_c_glib.so.0:thrift_protocol_decorator_get_concrete_protocol
libthrift_c_glib.so.0:thrift_protocol_decorator_get_type
libthrift_c_glib.so.0:thrift_protocol_decorator_read_binary
libthrift_c_glib.so.0:thrift_protocol_decorator_read_bool
libthrift_c_glib.so.0:thrift_protocol_decorator_read_byte
libthrift_c_glib.so.0:thrift_protocol_decorator_read_double
libthrift_c_glib.so.0:thrift_protocol_decorator_read_field_begin
libthrift_c_glib.so.0:thrift_protocol_decorator_read_field_end
libthrift_c_glib.so.0:thrift_protocol_decorator_read_i16
libthrift_c_glib.so.0:thrift_protocol_decorator_read_i32
libthrift_c_glib.so.0:thrift_protocol_decorator_read_i64
libthrift_c_glib.so.0:thrift_protocol_decorator_read_list_begin
libthrift_c_glib.so.0:thrift_protocol_decorator_read_list_end
libthrift_c_glib.so.0:thrift_protocol_decorator_read_map_begin
libthrift_c_glib.so.0:thrift_protocol_decorator_read_map_end
libthrift_c_glib.so.0:thrift_protocol_decorator_read_message_begin
libthrift_c_glib.so.0:thrift_protocol_decorator_read_message_end
libthrift_c_glib.so.0:thrift_protocol_decorator_read_set_begin
libthrift_c_glib.so.0:thrift_protocol_decorator_read_set_end
libthrift_c_glib.so.0:thrift_protocol_decorator_read_string
libthrift_c_glib.so.0:thrift_protocol_decorator_read_struct_begin
libthrift_c_glib.so.0:thrift_protocol_decorator_read_struct_end
libthrift_c_glib.so.0:thrift_protocol_decorator_write_binary
libthrift_c_glib.so.0:thrift_protocol_decorator_write_bool
libthrift_c_glib.so.0:thrift_protocol_decorator_write_byte
libthrift_c_glib.so.0:thrift_protocol_decorator_write_double
libthrift_c_glib.so.0:thrift_protocol_decorator_write_field_begin
libthrift_c_glib.so.0:thrift_protocol_decorator_write_field_end
libthrift_c_glib.so.0:thrift_protocol_decorator_write_field_stop
libthrift_c_glib.so.0:thrift_protocol_decorator_write_i16
libthrift_c_glib.so.0:thrift_protocol_decorator_write_i32
libthrift_c_glib.so.0:thrift_protocol_decorator_write_i64
libthrift_c_glib.so.0:thrift_protocol_decorator_write_list_begin
libthrift_c_glib.so.0:thrift_protocol_decorator_write_list_end
libthrift_c_glib.so.0:thrift_protocol_decorator_write_map_begin
libthrift_c_glib.so.0:thrift_protocol_decorator_write_map_end
libthrift_c_glib.so.0:thrift_protocol_decorator_write_message_begin
libthrift_c_glib.so.0:thrift_protocol_decorator_write_message_end
libthrift_c_glib.so.0:thrift_protocol_decorator_write_set_begin
libthrift_c_glib.so.0:thrift_protocol_decorator_write_set_end
libthrift_c_glib.so.0:thrift_protocol_decorator_write_string
libthrift_c_glib.so.0:thrift_protocol_decorator_write_struct_begin
libthrift_c_glib.so.0:thrift_protocol_decorator_write_struct_end
libthrift_c_glib.so.0:thrift_protocol_error_quark
libthrift_c_glib.so.0:thrift_protocol_factory_get_protocol
libthrift_c_glib.so.0:thrift_protocol_factory_get_type
libthrift_c_glib.so.0:thrift_protocol_get_property
libthrift_c_glib.so.0:thrift_protocol_get_type
libthrift_c_glib.so.0:thrift_protocol_read_binary
libthrift_c_glib.so.0:thrift_protocol_read_bool
libthrift_c_glib.so.0:thrift_protocol_read_byte
libthrift_c_glib.so.0:thrift_protocol_read_double
libthrift_c_glib.so.0:thrift_protocol_read_field_begin
libthrift_c_glib.so.0:thrift_protocol_read_field_end
libthrift_c_glib.so.0:thrift_protocol_read_i16
libthrift_c_glib.so.0:thrift_protocol_read_i32
libthrift_c_glib.so.0:thrift_protocol_read_i64
libthrift_c_glib.so.0:thrift_protocol_read_list_begin
libthrift_c_glib.so.0:thrift_protocol_read_list_end
libthrift_c_glib.so.0:thrift_protocol_read_map_begin
libthrift_c_glib.so.0:thrift_protocol_read_map_end
libthrift_c_glib.so.0:thrift_protocol_read_message_begin
libthrift_c_glib.so.0:thrift_protocol_read_message_end
libthrift_c_glib.so.0:thrift_protocol_read_set_begin
libthrift_c_glib.so.0:thrift_protocol_read_set_end
libthrift_c_glib.so.0:thrift_protocol_read_string
libthrift_c_glib.so.0:thrift_protocol_read_struct_begin
libthrift_c_glib.so.0:thrift_protocol_read_struct_end
libthrift_c_glib.so.0:thrift_protocol_set_property
libthrift_c_glib.so.0:thrift_protocol_skip
libthrift_c_glib.so.0:thrift_protocol_write_binary
libthrift_c_glib.so.0:thrift_protocol_write_bool
libthrift_c_glib.so.0:thrift_protocol_write_byte
libthrift_c_glib.so.0:thrift_protocol_write_double
libthrift_c_glib.so.0:thrift_protocol_write_field_begin
libthrift_c_glib.so.0:thrift_protocol_write_field_end
libthrift_c_glib.so.0:thrift_protocol_write_field_stop
libthrift_c_glib.so.0:thrift_protocol_write_i16
libthrift_c_glib.so.0:thrift_protocol_write_i32
libthrift_c_glib.so.0:thrift_protocol_write_i64
libthrift_c_glib.so.0:thrift_protocol_write_list_begin
libthrift_c_glib.so.0:thrift_protocol_write_list_end
libthrift_c_glib.so.0:thrift_protocol_write_map_begin
libthrift_c_glib.so.0:thrift_protocol_write_map_end
libthrift_c_glib.so.0:thrift_protocol_write_message_begin
libthrift_c_glib.so.0:thrift_protocol_write_message_end
libthrift_c_glib.so.0:thrift_protocol_write_set_begin
libthrift_c_glib.so.0:thrift_protocol_write_set_end
libthrift_c_glib.so.0:thrift_protocol_write_string
libthrift_c_glib.so.0:thrift_protocol_write_struct_begin
libthrift_c_glib.so.0:thrift_protocol_write_struct_end
libthrift_c_glib.so.0:thrift_safe_hash_table_destroy
libthrift_c_glib.so.0:thrift_server_get_property
libthrift_c_glib.so.0:thrift_server_get_type
libthrift_c_glib.so.0:thrift_server_serve
libthrift_c_glib.so.0:thrift_server_set_property
libthrift_c_glib.so.0:thrift_server_socket_accept
libthrift_c_glib.so.0:thrift_server_socket_close
libthrift_c_glib.so.0:thrift_server_socket_error_quark
libthrift_c_glib.so.0:thrift_server_socket_get_property
libthrift_c_glib.so.0:thrift_server_socket_get_type
libthrift_c_glib.so.0:thrift_server_socket_listen
libthrift_c_glib.so.0:thrift_server_socket_set_property
libthrift_c_glib.so.0:thrift_server_stop
libthrift_c_glib.so.0:thrift_server_transport_accept
libthrift_c_glib.so.0:thrift_server_transport_close
libthrift_c_glib.so.0:thrift_server_transport_get_type
libthrift_c_glib.so.0:thrift_server_transport_listen
libthrift_c_glib.so.0:thrift_simple_server_get_type
libthrift_c_glib.so.0:thrift_simple_server_serve
libthrift_c_glib.so.0:thrift_simple_server_stop
libthrift_c_glib.so.0:thrift_socket_close
libthrift_c_glib.so.0:thrift_socket_flush
libthrift_c_glib.so.0:thrift_socket_get_property
libthrift_c_glib.so.0:thrift_socket_get_type
libthrift_c_glib.so.0:thrift_socket_is_open
libthrift_c_glib.so.0:thrift_socket_open
libthrift_c_glib.so.0:thrift_socket_peek
libthrift_c_glib.so.0:thrift_socket_read
libthrift_c_glib.so.0:thrift_socket_read_end
libthrift_c_glib.so.0:thrift_socket_set_property
libthrift_c_glib.so.0:thrift_socket_write
libthrift_c_glib.so.0:thrift_socket_write_end
libthrift_c_glib.so.0:thrift_ssl_load_cert_from_buffer
libthrift_c_glib.so.0:thrift_ssl_load_cert_from_file
libthrift_c_glib.so.0:thrift_ssl_socket_authorize
libthrift_c_glib.so.0:thrift_ssl_socket_close
libthrift_c_glib.so.0:thrift_ssl_socket_context_initialize
libthrift_c_glib.so.0:thrift_ssl_socket_create_ssl_context
libthrift_c_glib.so.0:thrift_ssl_socket_finalize_openssl
libthrift_c_glib.so.0:thrift_ssl_socket_flush
libthrift_c_glib.so.0:thrift_ssl_socket_get_property
libthrift_c_glib.so.0:thrift_ssl_socket_get_type
libthrift_c_glib.so.0:thrift_ssl_socket_handle_handshake
libthrift_c_glib.so.0:thrift_ssl_socket_initialize_openssl
libthrift_c_glib.so.0:thrift_ssl_socket_is_open
libthrift_c_glib.so.0:thrift_ssl_socket_new
libthrift_c_glib.so.0:thrift_ssl_socket_new_with_host
libthrift_c_glib.so.0:thrift_ssl_socket_open
libthrift_c_glib.so.0:thrift_ssl_socket_peek
libthrift_c_glib.so.0:thrift_ssl_socket_read
libthrift_c_glib.so.0:thrift_ssl_socket_read_end
libthrift_c_glib.so.0:thrift_ssl_socket_set_manager
libthrift_c_glib.so.0:thrift_ssl_socket_set_property
libthrift_c_glib.so.0:thrift_ssl_socket_write
libthrift_c_glib.so.0:thrift_ssl_socket_write_end
libthrift_c_glib.so.0:thrift_stored_message_protocol_get_type
libthrift_c_glib.so.0:thrift_stored_message_protocol_read_message_begin
libthrift_c_glib.so.0:thrift_string_free
libthrift_c_glib.so.0:thrift_struct_get_type
libthrift_c_glib.so.0:thrift_struct_read
libthrift_c_glib.so.0:thrift_struct_write
libthrift_c_glib.so.0:thrift_transport_close
libthrift_c_glib.so.0:thrift_transport_error_quark
libthrift_c_glib.so.0:thrift_transport_factory_get_transport
libthrift_c_glib.so.0:thrift_transport_factory_get_type
libthrift_c_glib.so.0:thrift_transport_flush
libthrift_c_glib.so.0:thrift_transport_get_type
libthrift_c_glib.so.0:thrift_transport_is_open
libthrift_c_glib.so.0:thrift_transport_open
libthrift_c_glib.so.0:thrift_transport_peek
libthrift_c_glib.so.0:thrift_transport_read
libthrift_c_glib.so.0:thrift_transport_read_all
libthrift_c_glib.so.0:thrift_transport_read_end
libthrift_c_glib.so.0:thrift_transport_write
libthrift_c_glib.so.0:thrift_transport_write_end
libthriftqt5-0.12.0.so:_ZN6apache6thrift5async11TQTcpServer11beginDecodeEv
libthriftqt5-0.12.0.so:_ZN6apache6thrift5async11TQTcpServer11qt_metacallEN11QMetaObject4CallEiPPv
libthriftqt5-0.12.0.so:_ZN6apache6thrift5async11TQTcpServer11qt_metacastEPKc
libthriftqt5-0.12.0.so:_ZN6apache6thrift5async11TQTcpServer12socketClosedEv
libthriftqt5-0.12.0.so:_ZN6apache6thrift5async11TQTcpServer15processIncomingEv
libthriftqt5-0.12.0.so:_ZN6apache6thrift5async11TQTcpServer23deleteConnectionContextEP10QTcpSocket
libthriftqt5-0.12.0.so:_ZN6apache6thrift5async11TQTcpServer31scheduleDeleteConnectionContextEP10QTcpSocket
libthriftqt5-0.12.0.so:_ZN6apache6thrift5async11TQTcpServer6finishESt10shared_ptrINS2_17ConnectionContextEEb
libthriftqt5-0.12.0.so:_ZN6apache6thrift5async11TQTcpServerC1ESt10shared_ptrI10QTcpServerES3_INS1_15TAsyncProcessorEES3_INS0_8protocol16TProtocolFactoryEEP7QObject
libthriftqt5-0.12.0.so:_ZN6apache6thrift5async11TQTcpServerC2ESt10shared_ptrI10QTcpServerES3_INS1_15TAsyncProcessorEES3_INS0_8protocol16TProtocolFactoryEEP7QObject
libthriftqt5-0.12.0.so:_ZN6apache6thrift5async11TQTcpServerD0Ev
libthriftqt5-0.12.0.so:_ZN6apache6thrift5async11TQTcpServerD1Ev
libthriftqt5-0.12.0.so:_ZN6apache6thrift5async11TQTcpServerD2Ev
libthriftqt5-0.12.0.so:_ZN6apache6thrift9transport19TQIODeviceTransport13write_partialEPKhj
libthriftqt5-0.12.0.so:_ZN6apache6thrift9transport19TQIODeviceTransport4openEv
libthriftqt5-0.12.0.so:_ZN6apache6thrift9transport19TQIODeviceTransport4peekEv
libthriftqt5-0.12.0.so:_ZN6apache6thrift9transport19TQIODeviceTransport4readEPhj
libthriftqt5-0.12.0.so:_ZN6apache6thrift9transport19TQIODeviceTransport5closeEv
libthriftqt5-0.12.0.so:_ZN6apache6thrift9transport19TQIODeviceTransport5flushEv
libthriftqt5-0.12.0.so:_ZN6apache6thrift9transport19TQIODeviceTransport5writeEPKhj
libthriftqt5-0.12.0.so:_ZN6apache6thrift9transport19TQIODeviceTransport6borrowEPhPj
libthriftqt5-0.12.0.so:_ZN6apache6thrift9transport19TQIODeviceTransport6isOpenEv
libthriftqt5-0.12.0.so:_ZN6apache6thrift9transport19TQIODeviceTransport7consumeEj
libthriftqt5-0.12.0.so:_ZN6apache6thrift9transport19TQIODeviceTransport7readAllEPhj
libthriftqt5-0.12.0.so:_ZN6apache6thrift9transport19TQIODeviceTransportC1ESt10shared_ptrI9QIODeviceE
libthriftqt5-0.12.0.so:_ZN6apache6thrift9transport19TQIODeviceTransportC2ESt10shared_ptrI9QIODeviceE
libthriftqt5-0.12.0.so:_ZN6apache6thrift9transport19TQIODeviceTransportD0Ev
libthriftqt5-0.12.0.so:_ZN6apache6thrift9transport19TQIODeviceTransportD1Ev
libthriftqt5-0.12.0.so:_ZN6apache6thrift9transport19TQIODeviceTransportD2Ev
libthriftqt5-0.12.0.so:_ZNK6apache6thrift5async11TQTcpServer10metaObjectEv
libthriftz-0.12.0.so:_ZN6apache6thrift8protocol15THeaderProtocol10readBinaryERNSt7__cxx1112basic_stringIcSt11char_traitsIcESaIcEEE
libthriftz-0.12.0.so:_ZN6apache6thrift8protocol15THeaderProtocol10readDoubleERd
libthriftz-0.12.0.so:_ZN6apache6thrift8protocol15THeaderProtocol10readMapEndEv
libthriftz-0.12.0.so:_ZN6apache6thrift8protocol15THeaderProtocol10readSetEndEv
libthriftz-0.12.0.so:_ZN6apache6thrift8protocol15THeaderProtocol10readStringERNSt7__cxx1112basic_stringIcSt11char_traitsIcESaIcEEE
libthriftz-0.12.0.so:_ZN6apache6thrift8protocol15THeaderProtocol11readListEndEv
libthriftz-0.12.0.so:_ZN6apache6thrift8protocol15THeaderProtocol11writeBinaryERKNSt7__cxx1112basic_stringIcSt11char_traitsIcESaIcEEE
libthriftz-0.12.0.so:_ZN6apache6thrift8protocol15THeaderProtocol11writeDoubleEd
libthriftz-0.12.0.so:_ZN6apache6thrift8protocol15THeaderProtocol11writeMapEndEv
libthriftz-0.12.0.so:_ZN6apache6thrift8protocol15THeaderProtocol11writeSetEndEv
libthriftz-0.12.0.so:_ZN6apache6thrift8protocol15THeaderProtocol11writeStringERKNSt7__cxx1112basic_stringIcSt11char_traitsIcESaIcEEE
libthriftz-0.12.0.so:_ZN6apache6thrift8protocol15THeaderProtocol12readFieldEndEv
libthriftz-0.12.0.so:_ZN6apache6thrift8protocol15THeaderProtocol12readMapBeginERNS1_5TTypeES4_Rj
libthriftz-0.12.0.so:_ZN6apache6thrift8protocol15THeaderProtocol12readSetBeginERNS1_5TTypeERj
libthriftz-0.12.0.so:_ZN6apache6thrift8protocol15THeaderProtocol12writeListEndEv
libthriftz-0.12.0.so:_ZN6apache6thrift8protocol15THeaderProtocol13readListBeginERNS1_5TTypeERj
libthriftz-0.12.0.so:_ZN6apache6thrift8protocol15THeaderProtocol13readStructEndEv
libthriftz-0.12.0.so:_ZN6apache6thrift8protocol15THeaderProtocol13resetProtocolEv
libthriftz-0.12.0.so:_ZN6apache6thrift8protocol15THeaderProtocol13writeFieldEndEv
libthriftz-0.12.0.so:_ZN6apache6thrift8protocol15THeaderProtocol13writeMapBeginENS1_5TTypeES3_j
libthriftz-0.12.0.so:_ZN6apache6thrift8protocol15THeaderProtocol13writeSetBeginENS1_5TTypeEj
libthriftz-0.12.0.so:_ZN6apache6thrift8protocol15THeaderProtocol14readFieldBeginERNSt7__cxx1112basic_stringIcSt11char_traitsIcESaIcEEERNS1_5TTypeERs
libthriftz-0.12.0.so:_ZN6apache6thrift8protocol15THeaderProtocol14readMessageEndEv
libthriftz-0.12.0.so:_ZN6apache6thrift8protocol15THeaderProtocol14writeFieldStopEv
libthriftz-0.12.0.so:_ZN6apache6thrift8protocol15THeaderProtocol14writeListBeginENS1_5TTypeEj
libthriftz-0.12.0.so:_ZN6apache6thrift8protocol15THeaderProtocol14writeStructEndEv
libthriftz-0.12.0.so:_ZN6apache6thrift8protocol15THeaderProtocol15readStructBeginERNSt7__cxx1112basic_stringIcSt11char_traitsIcESaIcEEE
libthriftz-0.12.0.so:_ZN6apache6thrift8protocol15THeaderProtocol15writeFieldBeginEPKcNS1_5TTypeEs
libthriftz-0.12.0.so:_ZN6apache6thrift8protocol15THeaderProtocol15writeMessageEndEv
libthriftz-0.12.0.so:_ZN6apache6thrift8protocol15THeaderProtocol16readMessageBeginERNSt7__cxx1112basic_stringIcSt11char_traitsIcESaIcEEERNS1_12TMessageTypeERi
libthriftz-0.12.0.so:_ZN6apache6thrift8protocol15THeaderProtocol16writeStructBeginEPKc
libthriftz-0.12.0.so:_ZN6apache6thrift8protocol15THeaderProtocol17writeMessageBeginERKNSt7__cxx1112basic_stringIcSt11char_traitsIcESaIcEEENS1_12TMessageTypeEi
libthriftz-0.12.0.so:_ZN6apache6thrift8protocol15THeaderProtocol7readI16ERs
libthriftz-0.12.0.so:_ZN6apache6thrift8protocol15THeaderProtocol7readI32ERi
libthriftz-0.12.0.so:_ZN6apache6thrift8protocol15THeaderProtocol7readI64ERl
libthriftz-0.12.0.so:_ZN6apache6thrift8protocol15THeaderProtocol8readBoolERb
libthriftz-0.12.0.so:_ZN6apache6thrift8protocol15THeaderProtocol8readByteERa
libthriftz-0.12.0.so:_ZN6apache6thrift8protocol15THeaderProtocol8writeI16Es
libthriftz-0.12.0.so:_ZN6apache6thrift8protocol15THeaderProtocol8writeI32Ei
libthriftz-0.12.0.so:_ZN6apache6thrift8protocol15THeaderProtocol8writeI64El
libthriftz-0.12.0.so:_ZN6apache6thrift8protocol15THeaderProtocol9writeBoolEb
libthriftz-0.12.0.so:_ZN6apache6thrift8protocol15THeaderProtocol9writeByteEa
libthriftz-0.12.0.so:_ZN6apache6thrift9transport14TZlibTransport11flushToZlibEPKhii
libthriftz-0.12.0.so:_ZN6apache6thrift9transport14TZlibTransport12readFromZlibEv
libthriftz-0.12.0.so:_ZN6apache6thrift9transport14TZlibTransport14verifyChecksumEv
libthriftz-0.12.0.so:_ZN6apache6thrift9transport14TZlibTransport16flushToTransportEi
libthriftz-0.12.0.so:_ZN6apache6thrift9transport14TZlibTransport4peekEv
libthriftz-0.12.0.so:_ZN6apache6thrift9transport14TZlibTransport4readEPhj
libthriftz-0.12.0.so:_ZN6apache6thrift9transport14TZlibTransport5flushEv
libthriftz-0.12.0.so:_ZN6apache6thrift9transport14TZlibTransport5writeEPKhj
libthriftz-0.12.0.so:_ZN6apache6thrift9transport14TZlibTransport6borrowEPhPj
libthriftz-0.12.0.so:_ZN6apache6thrift9transport14TZlibTransport6finishEv
libthriftz-0.12.0.so:_ZN6apache6thrift9transport14TZlibTransport6isOpenEv
libthriftz-0.12.0.so:_ZN6apache6thrift9transport14TZlibTransport7consumeEj
libthriftz-0.12.0.so:_ZN6apache6thrift9transport14TZlibTransport8initZlibEv
libthriftz-0.12.0.so:_ZN6apache6thrift9transport14TZlibTransportD0Ev
libthriftz-0.12.0.so:_ZN6apache6thrift9transport14TZlibTransportD1Ev
libthriftz-0.12.0.so:_ZN6apache6thrift9transport14TZlibTransportD2Ev
libthriftz-0.12.0.so:_ZN6apache6thrift9transport16THeaderTransport10readStringERPhRNSt7__cxx1112basic_stringIcSt11char_traitsIcESaIcEEEPKh
libthriftz-0.12.0.so:_ZN6apache6thrift9transport16THeaderTransport11untransformEPhj
libthriftz-0.12.0.so:_ZN6apache6thrift9transport16THeaderTransport11writeStringERPhRKNSt7__cxx1112basic_stringIcSt11char_traitsIcESaIcEEE
libthriftz-0.12.0.so:_ZN6apache6thrift9transport16THeaderTransport12clearHeadersEv
libthriftz-0.12.0.so:_ZN6apache6thrift9transport16THeaderTransport12readVarint16EPKhPsS4_
libthriftz-0.12.0.so:_ZN6apache6thrift9transport16THeaderTransport12readVarint32EPKhPiS4_
libthriftz-0.12.0.so:_ZN6apache6thrift9transport16THeaderTransport13getWriteBytesEv
libthriftz-0.12.0.so:_ZN6apache6thrift9transport16THeaderTransport13resetProtocolEv
libthriftz-0.12.0.so:_ZN6apache6thrift9transport16THeaderTransport13writeVarint16EsPh
libthriftz-0.12.0.so:_ZN6apache6thrift9transport16THeaderTransport13writeVarint32EiPh
libthriftz-0.12.0.so:_ZN6apache6thrift9transport16THeaderTransport16ensureReadBufferEj
libthriftz-0.12.0.so:_ZN6apache6thrift9transport16THeaderTransport16readHeaderFormatEtj
libthriftz-0.12.0.so:_ZN6apache6thrift9transport16THeaderTransport21resizeTransformBufferEj
libthriftz-0.12.0.so:_ZN6apache6thrift9transport16THeaderTransport5flushEv
libthriftz-0.12.0.so:_ZN6apache6thrift9transport16THeaderTransport8readSlowEPhj
libthriftz-0.12.0.so:_ZN6apache6thrift9transport16THeaderTransport9readFrameEv
libthriftz-0.12.0.so:_ZN6apache6thrift9transport16THeaderTransport9setHeaderERKNSt7__cxx1112basic_stringIcSt11char_traitsIcESaIcEEESA_
libthriftz-0.12.0.so:_ZN6apache6thrift9transport16THeaderTransport9transformEPhj
libthriftz-0.12.0.so:_ZNK6apache6thrift9transport16THeaderTransport13getProtocolIdEv
libthriftz-0.12.0.so:_ZNK6apache6thrift9transport16THeaderTransport22getMaxWriteHeadersSizeEv
